
main_riscv.o:     file format elf64-littleriscv


Disassembly of section .text:

0000000000000000 <main>:
   0:	7179                	addi	sp,sp,-48
   2:	f406                	sd	ra,40(sp)
   4:	f022                	sd	s0,32(sp)
   6:	1800                	addi	s0,sp,48
   8:	fe042623          	sw	zero,-20(s0)
   c:	4785                	li	a5,1
   e:	fef42423          	sw	a5,-24(s0)
  12:	4785                	li	a5,1
  14:	fef42223          	sw	a5,-28(s0)
  18:	fdc40793          	addi	a5,s0,-36
  1c:	85be                	mv	a1,a5
  1e:	000007b7          	lui	a5,0x0
  22:	00078513          	mv	a0,a5
  26:	00000097          	auipc	ra,0x0
  2a:	000080e7          	jalr	ra # 26 <main+0x26>
  2e:	fdc42703          	lw	a4,-36(s0)
  32:	6789                	lui	a5,0x2
  34:	71078793          	addi	a5,a5,1808 # 2710 <.L3+0x265c>
  38:	00e7d763          	bge	a5,a4,46 <.L2>
  3c:	6789                	lui	a5,0x2
  3e:	71078793          	addi	a5,a5,1808 # 2710 <.L3+0x265c>
  42:	fcf42e23          	sw	a5,-36(s0)

0000000000000046 <.L2>:
  46:	fec42783          	lw	a5,-20(s0)
  4a:	85be                	mv	a1,a5
  4c:	000007b7          	lui	a5,0x0
  50:	00078513          	mv	a0,a5
  54:	00000097          	auipc	ra,0x0
  58:	000080e7          	jalr	ra # 54 <.L2+0xe>
  5c:	fe842783          	lw	a5,-24(s0)
  60:	85be                	mv	a1,a5
  62:	000007b7          	lui	a5,0x0
  66:	00078513          	mv	a0,a5
  6a:	00000097          	auipc	ra,0x0
  6e:	000080e7          	jalr	ra # 6a <.L2+0x24>
  72:	a089                	j	b4 <.L3>

0000000000000074 <.L4>:
  74:	fe842783          	lw	a5,-24(s0)
  78:	fef42023          	sw	a5,-32(s0)
  7c:	fe842783          	lw	a5,-24(s0)
  80:	873e                	mv	a4,a5
  82:	fec42783          	lw	a5,-20(s0)
  86:	9fb9                	addw	a5,a5,a4
  88:	fef42423          	sw	a5,-24(s0)
  8c:	fe842783          	lw	a5,-24(s0)
  90:	85be                	mv	a1,a5
  92:	000007b7          	lui	a5,0x0
  96:	00078513          	mv	a0,a5
  9a:	00000097          	auipc	ra,0x0
  9e:	000080e7          	jalr	ra # 9a <.L4+0x26>
  a2:	fe042783          	lw	a5,-32(s0)
  a6:	fef42623          	sw	a5,-20(s0)
  aa:	fe442783          	lw	a5,-28(s0)
  ae:	2785                	addiw	a5,a5,1 # 1 <main+0x1>
  b0:	fef42223          	sw	a5,-28(s0)

00000000000000b4 <.L3>:
  b4:	fdc42783          	lw	a5,-36(s0)
  b8:	fe442703          	lw	a4,-28(s0)
  bc:	2701                	sext.w	a4,a4
  be:	faf74be3          	blt	a4,a5,74 <.L4>
  c2:	4781                	li	a5,0
  c4:	853e                	mv	a0,a5
  c6:	70a2                	ld	ra,40(sp)
  c8:	7402                	ld	s0,32(sp)
  ca:	6145                	addi	sp,sp,48
  cc:	8082                	ret
