
main_riscv:     file format elf64-littleriscv


Disassembly of section .text:

0000000000010120 <exit>:
   10120:	1141                	addi	sp,sp,-16
   10122:	4581                	li	a1,0
   10124:	e022                	sd	s0,0(sp)
   10126:	e406                	sd	ra,8(sp)
   10128:	842a                	mv	s0,a0
   1012a:	073000ef          	jal	1099c <__call_exitprocs>
   1012e:	2381b783          	ld	a5,568(gp) # 254b0 <__stdio_exit_handler>
   10132:	c391                	beqz	a5,10136 <exit+0x16>
   10134:	9782                	jalr	a5
   10136:	8522                	mv	a0,s0
   10138:	06e110ef          	jal	211a6 <_exit>

000000000001013c <register_fini>:
   1013c:	00000793          	li	a5,0
   10140:	c799                	beqz	a5,1014e <register_fini+0x12>
   10142:	00007517          	auipc	a0,0x7
   10146:	ae050513          	addi	a0,a0,-1312 # 16c22 <__libc_fini_array>
   1014a:	1290006f          	j	10a72 <atexit>
   1014e:	8082                	ret

0000000000010150 <_start>:
   10150:	00015197          	auipc	gp,0x15
   10154:	12818193          	addi	gp,gp,296 # 25278 <__global_pointer$>
   10158:	00015517          	auipc	a0,0x15
   1015c:	35850513          	addi	a0,a0,856 # 254b0 <__stdio_exit_handler>
   10160:	00016617          	auipc	a2,0x16
   10164:	91860613          	addi	a2,a2,-1768 # 25a78 <__BSS_END__>
   10168:	8e09                	sub	a2,a2,a0
   1016a:	4581                	li	a1,0
   1016c:	786000ef          	jal	108f2 <memset>
   10170:	00001517          	auipc	a0,0x1
   10174:	90250513          	addi	a0,a0,-1790 # 10a72 <atexit>
   10178:	c519                	beqz	a0,10186 <_start+0x36>
   1017a:	00007517          	auipc	a0,0x7
   1017e:	aa850513          	addi	a0,a0,-1368 # 16c22 <__libc_fini_array>
   10182:	0f1000ef          	jal	10a72 <atexit>
   10186:	702000ef          	jal	10888 <__libc_init_array>
   1018a:	4502                	lw	a0,0(sp)
   1018c:	002c                	addi	a1,sp,8
   1018e:	4601                	li	a2,0
   10190:	058000ef          	jal	101e8 <main>
   10194:	b771                	j	10120 <exit>

0000000000010196 <__do_global_dtors_aux>:
   10196:	2781c783          	lbu	a5,632(gp) # 254f0 <completed.1>
   1019a:	eb85                	bnez	a5,101ca <__do_global_dtors_aux+0x34>
   1019c:	00000793          	li	a5,0
   101a0:	c38d                	beqz	a5,101c2 <__do_global_dtors_aux+0x2c>
   101a2:	1141                	addi	sp,sp,-16
   101a4:	00013517          	auipc	a0,0x13
   101a8:	6bc50513          	addi	a0,a0,1724 # 23860 <__EH_FRAME_BEGIN__>
   101ac:	e406                	sd	ra,8(sp)
   101ae:	00000097          	auipc	ra,0x0
   101b2:	000000e7          	jalr	zero # 0 <exit-0x10120>
   101b6:	60a2                	ld	ra,8(sp)
   101b8:	4785                	li	a5,1
   101ba:	26f18c23          	sb	a5,632(gp) # 254f0 <completed.1>
   101be:	0141                	addi	sp,sp,16
   101c0:	8082                	ret
   101c2:	4785                	li	a5,1
   101c4:	26f18c23          	sb	a5,632(gp) # 254f0 <completed.1>
   101c8:	8082                	ret
   101ca:	8082                	ret

00000000000101cc <frame_dummy>:
   101cc:	00000793          	li	a5,0
   101d0:	cb99                	beqz	a5,101e6 <frame_dummy+0x1a>
   101d2:	28018593          	addi	a1,gp,640 # 254f8 <object.0>
   101d6:	00013517          	auipc	a0,0x13
   101da:	68a50513          	addi	a0,a0,1674 # 23860 <__EH_FRAME_BEGIN__>
   101de:	00000317          	auipc	t1,0x0
   101e2:	00000067          	jr	zero # 0 <exit-0x10120>
   101e6:	8082                	ret

00000000000101e8 <main>:
   101e8:	7179                	addi	sp,sp,-48
   101ea:	f406                	sd	ra,40(sp)
   101ec:	f022                	sd	s0,32(sp)
   101ee:	1800                	addi	s0,sp,48
   101f0:	fe042623          	sw	zero,-20(s0)
   101f4:	4785                	li	a5,1
   101f6:	fef42423          	sw	a5,-24(s0)
   101fa:	4785                	li	a5,1
   101fc:	fef42223          	sw	a5,-28(s0)
   10200:	fdc40793          	addi	a5,s0,-36
   10204:	85be                	mv	a1,a5
   10206:	000227b7          	lui	a5,0x22
   1020a:	5d078513          	addi	a0,a5,1488 # 225d0 <__clzdi2+0x34>
   1020e:	3f8000ef          	jal	10606 <scanf>
   10212:	fdc42703          	lw	a4,-36(s0)
   10216:	6789                	lui	a5,0x2
   10218:	71078793          	addi	a5,a5,1808 # 2710 <exit-0xda10>
   1021c:	00e7d763          	bge	a5,a4,1022a <main+0x42>
   10220:	6789                	lui	a5,0x2
   10222:	71078793          	addi	a5,a5,1808 # 2710 <exit-0xda10>
   10226:	fcf42e23          	sw	a5,-36(s0)
   1022a:	fec42783          	lw	a5,-20(s0)
   1022e:	85be                	mv	a1,a5
   10230:	000227b7          	lui	a5,0x22
   10234:	5d878513          	addi	a0,a5,1496 # 225d8 <__clzdi2+0x3c>
   10238:	3a2000ef          	jal	105da <printf>
   1023c:	fe842783          	lw	a5,-24(s0)
   10240:	85be                	mv	a1,a5
   10242:	000227b7          	lui	a5,0x22
   10246:	5d878513          	addi	a0,a5,1496 # 225d8 <__clzdi2+0x3c>
   1024a:	390000ef          	jal	105da <printf>
   1024e:	a83d                	j	1028c <main+0xa4>
   10250:	fe842783          	lw	a5,-24(s0)
   10254:	fef42023          	sw	a5,-32(s0)
   10258:	fe842783          	lw	a5,-24(s0)
   1025c:	873e                	mv	a4,a5
   1025e:	fec42783          	lw	a5,-20(s0)
   10262:	9fb9                	addw	a5,a5,a4
   10264:	fef42423          	sw	a5,-24(s0)
   10268:	fe842783          	lw	a5,-24(s0)
   1026c:	85be                	mv	a1,a5
   1026e:	000227b7          	lui	a5,0x22
   10272:	5d878513          	addi	a0,a5,1496 # 225d8 <__clzdi2+0x3c>
   10276:	364000ef          	jal	105da <printf>
   1027a:	fe042783          	lw	a5,-32(s0)
   1027e:	fef42623          	sw	a5,-20(s0)
   10282:	fe442783          	lw	a5,-28(s0)
   10286:	2785                	addiw	a5,a5,1
   10288:	fef42223          	sw	a5,-28(s0)
   1028c:	fdc42783          	lw	a5,-36(s0)
   10290:	fe442703          	lw	a4,-28(s0)
   10294:	2701                	sext.w	a4,a4
   10296:	faf74de3          	blt	a4,a5,10250 <main+0x68>
   1029a:	4781                	li	a5,0
   1029c:	853e                	mv	a0,a5
   1029e:	70a2                	ld	ra,40(sp)
   102a0:	7402                	ld	s0,32(sp)
   102a2:	6145                	addi	sp,sp,48
   102a4:	8082                	ret

00000000000102a6 <__fp_lock>:
   102a6:	4501                	li	a0,0
   102a8:	8082                	ret

00000000000102aa <stdio_exit_handler>:
   102aa:	00014617          	auipc	a2,0x14
   102ae:	5d660613          	addi	a2,a2,1494 # 24880 <__sglue>
   102b2:	00006597          	auipc	a1,0x6
   102b6:	a7e58593          	addi	a1,a1,-1410 # 15d30 <_fclose_r>
   102ba:	00014517          	auipc	a0,0x14
   102be:	5de50513          	addi	a0,a0,1502 # 24898 <_impure_data>
   102c2:	a4bd                	j	10530 <_fwalk_sglue>

00000000000102c4 <cleanup_stdio>:
   102c4:	650c                	ld	a1,8(a0)
   102c6:	1141                	addi	sp,sp,-16
   102c8:	e022                	sd	s0,0(sp)
   102ca:	e406                	sd	ra,8(sp)
   102cc:	2b018793          	addi	a5,gp,688 # 25528 <__sf>
   102d0:	842a                	mv	s0,a0
   102d2:	00f58463          	beq	a1,a5,102da <cleanup_stdio+0x16>
   102d6:	25b050ef          	jal	15d30 <_fclose_r>
   102da:	680c                	ld	a1,16(s0)
   102dc:	36018793          	addi	a5,gp,864 # 255d8 <__sf+0xb0>
   102e0:	00f58563          	beq	a1,a5,102ea <cleanup_stdio+0x26>
   102e4:	8522                	mv	a0,s0
   102e6:	24b050ef          	jal	15d30 <_fclose_r>
   102ea:	6c0c                	ld	a1,24(s0)
   102ec:	41018793          	addi	a5,gp,1040 # 25688 <__sf+0x160>
   102f0:	00f58863          	beq	a1,a5,10300 <cleanup_stdio+0x3c>
   102f4:	8522                	mv	a0,s0
   102f6:	6402                	ld	s0,0(sp)
   102f8:	60a2                	ld	ra,8(sp)
   102fa:	0141                	addi	sp,sp,16
   102fc:	2350506f          	j	15d30 <_fclose_r>
   10300:	60a2                	ld	ra,8(sp)
   10302:	6402                	ld	s0,0(sp)
   10304:	0141                	addi	sp,sp,16
   10306:	8082                	ret

0000000000010308 <__fp_unlock>:
   10308:	4501                	li	a0,0
   1030a:	8082                	ret

000000000001030c <global_stdio_init.part.0>:
   1030c:	7179                	addi	sp,sp,-48
   1030e:	00000797          	auipc	a5,0x0
   10312:	f9c78793          	addi	a5,a5,-100 # 102aa <stdio_exit_handler>
   10316:	f406                	sd	ra,40(sp)
   10318:	f022                	sd	s0,32(sp)
   1031a:	ec26                	sd	s1,24(sp)
   1031c:	2b018413          	addi	s0,gp,688 # 25528 <__sf>
   10320:	e84a                	sd	s2,16(sp)
   10322:	e44e                	sd	s3,8(sp)
   10324:	e052                	sd	s4,0(sp)
   10326:	22f1bc23          	sd	a5,568(gp) # 254b0 <__stdio_exit_handler>
   1032a:	4621                	li	a2,8
   1032c:	4791                	li	a5,4
   1032e:	4581                	li	a1,0
   10330:	35418513          	addi	a0,gp,852 # 255cc <__sf+0xa4>
   10334:	c81c                	sw	a5,16(s0)
   10336:	00043023          	sd	zero,0(s0)
   1033a:	00043423          	sd	zero,8(s0)
   1033e:	0a042623          	sw	zero,172(s0)
   10342:	00043c23          	sd	zero,24(s0)
   10346:	02042023          	sw	zero,32(s0)
   1034a:	02042423          	sw	zero,40(s0)
   1034e:	5a4000ef          	jal	108f2 <memset>
   10352:	67c1                	lui	a5,0x10
   10354:	00000a17          	auipc	s4,0x0
   10358:	306a0a13          	addi	s4,s4,774 # 1065a <__sread>
   1035c:	00000997          	auipc	s3,0x0
   10360:	33a98993          	addi	s3,s3,826 # 10696 <__swrite>
   10364:	00000917          	auipc	s2,0x0
   10368:	38490913          	addi	s2,s2,900 # 106e8 <__sseek>
   1036c:	00000497          	auipc	s1,0x0
   10370:	3be48493          	addi	s1,s1,958 # 1072a <__sclose>
   10374:	07a5                	addi	a5,a5,9 # 10009 <exit-0x117>
   10376:	4621                	li	a2,8
   10378:	4581                	li	a1,0
   1037a:	40418513          	addi	a0,gp,1028 # 2567c <__sf+0x154>
   1037e:	0cf42023          	sw	a5,192(s0)
   10382:	03443c23          	sd	s4,56(s0)
   10386:	05343023          	sd	s3,64(s0)
   1038a:	05243423          	sd	s2,72(s0)
   1038e:	e824                	sd	s1,80(s0)
   10390:	f800                	sd	s0,48(s0)
   10392:	0a043823          	sd	zero,176(s0)
   10396:	0a043c23          	sd	zero,184(s0)
   1039a:	14042e23          	sw	zero,348(s0)
   1039e:	0c043423          	sd	zero,200(s0)
   103a2:	0c042823          	sw	zero,208(s0)
   103a6:	0c042c23          	sw	zero,216(s0)
   103aa:	548000ef          	jal	108f2 <memset>
   103ae:	000207b7          	lui	a5,0x20
   103b2:	07c9                	addi	a5,a5,18 # 20012 <_vfiprintf_r+0x7c>
   103b4:	36018713          	addi	a4,gp,864 # 255d8 <__sf+0xb0>
   103b8:	4621                	li	a2,8
   103ba:	4581                	li	a1,0
   103bc:	4b418513          	addi	a0,gp,1204 # 2572c <__sf+0x204>
   103c0:	16f42823          	sw	a5,368(s0)
   103c4:	0f443423          	sd	s4,232(s0)
   103c8:	0f343823          	sd	s3,240(s0)
   103cc:	0f243c23          	sd	s2,248(s0)
   103d0:	10943023          	sd	s1,256(s0)
   103d4:	f078                	sd	a4,224(s0)
   103d6:	16043023          	sd	zero,352(s0)
   103da:	16043423          	sd	zero,360(s0)
   103de:	20042623          	sw	zero,524(s0)
   103e2:	16043c23          	sd	zero,376(s0)
   103e6:	18042023          	sw	zero,384(s0)
   103ea:	18042423          	sw	zero,392(s0)
   103ee:	504000ef          	jal	108f2 <memset>
   103f2:	41018793          	addi	a5,gp,1040 # 25688 <__sf+0x160>
   103f6:	19443c23          	sd	s4,408(s0)
   103fa:	1b343023          	sd	s3,416(s0)
   103fe:	1b243423          	sd	s2,424(s0)
   10402:	1a943823          	sd	s1,432(s0)
   10406:	70a2                	ld	ra,40(sp)
   10408:	18f43823          	sd	a5,400(s0)
   1040c:	7402                	ld	s0,32(sp)
   1040e:	64e2                	ld	s1,24(sp)
   10410:	6942                	ld	s2,16(sp)
   10412:	69a2                	ld	s3,8(sp)
   10414:	6a02                	ld	s4,0(sp)
   10416:	6145                	addi	sp,sp,48
   10418:	8082                	ret

000000000001041a <__sfp>:
   1041a:	2381b783          	ld	a5,568(gp) # 254b0 <__stdio_exit_handler>
   1041e:	7179                	addi	sp,sp,-48
   10420:	ec26                	sd	s1,24(sp)
   10422:	f406                	sd	ra,40(sp)
   10424:	f022                	sd	s0,32(sp)
   10426:	84aa                	mv	s1,a0
   10428:	cbd5                	beqz	a5,104dc <__sfp+0xc2>
   1042a:	00014697          	auipc	a3,0x14
   1042e:	45668693          	addi	a3,a3,1110 # 24880 <__sglue>
   10432:	0b000813          	li	a6,176
   10436:	4698                	lw	a4,8(a3)
   10438:	06e05363          	blez	a4,1049e <__sfp+0x84>
   1043c:	1702                	slli	a4,a4,0x20
   1043e:	9301                	srli	a4,a4,0x20
   10440:	03070733          	mul	a4,a4,a6
   10444:	6a80                	ld	s0,16(a3)
   10446:	9722                	add	a4,a4,s0
   10448:	a029                	j	10452 <__sfp+0x38>
   1044a:	0b040413          	addi	s0,s0,176
   1044e:	04e40863          	beq	s0,a4,1049e <__sfp+0x84>
   10452:	01041783          	lh	a5,16(s0)
   10456:	fbf5                	bnez	a5,1044a <__sfp+0x30>
   10458:	77c1                	lui	a5,0xffff0
   1045a:	0785                	addi	a5,a5,1 # ffffffffffff0001 <__BSS_END__+0xfffffffffffca589>
   1045c:	c81c                	sw	a5,16(s0)
   1045e:	0a042623          	sw	zero,172(s0)
   10462:	00043023          	sd	zero,0(s0)
   10466:	00043423          	sd	zero,8(s0)
   1046a:	00043c23          	sd	zero,24(s0)
   1046e:	02042023          	sw	zero,32(s0)
   10472:	02042423          	sw	zero,40(s0)
   10476:	4621                	li	a2,8
   10478:	4581                	li	a1,0
   1047a:	0a440513          	addi	a0,s0,164
   1047e:	474000ef          	jal	108f2 <memset>
   10482:	04043c23          	sd	zero,88(s0)
   10486:	06042023          	sw	zero,96(s0)
   1048a:	06043c23          	sd	zero,120(s0)
   1048e:	08042023          	sw	zero,128(s0)
   10492:	70a2                	ld	ra,40(sp)
   10494:	8522                	mv	a0,s0
   10496:	7402                	ld	s0,32(sp)
   10498:	64e2                	ld	s1,24(sp)
   1049a:	6145                	addi	sp,sp,48
   1049c:	8082                	ret
   1049e:	6280                	ld	s0,0(a3)
   104a0:	c019                	beqz	s0,104a6 <__sfp+0x8c>
   104a2:	86a2                	mv	a3,s0
   104a4:	bf49                	j	10436 <__sfp+0x1c>
   104a6:	2d800593          	li	a1,728
   104aa:	8526                	mv	a0,s1
   104ac:	e436                	sd	a3,8(sp)
   104ae:	0d9000ef          	jal	10d86 <_malloc_r>
   104b2:	66a2                	ld	a3,8(sp)
   104b4:	842a                	mv	s0,a0
   104b6:	c515                	beqz	a0,104e2 <__sfp+0xc8>
   104b8:	4791                	li	a5,4
   104ba:	c51c                	sw	a5,8(a0)
   104bc:	0561                	addi	a0,a0,24
   104be:	00043023          	sd	zero,0(s0)
   104c2:	e808                	sd	a0,16(s0)
   104c4:	2c000613          	li	a2,704
   104c8:	4581                	li	a1,0
   104ca:	e436                	sd	a3,8(sp)
   104cc:	426000ef          	jal	108f2 <memset>
   104d0:	66a2                	ld	a3,8(sp)
   104d2:	0b000813          	li	a6,176
   104d6:	e280                	sd	s0,0(a3)
   104d8:	86a2                	mv	a3,s0
   104da:	bfb1                	j	10436 <__sfp+0x1c>
   104dc:	e31ff0ef          	jal	1030c <global_stdio_init.part.0>
   104e0:	b7a9                	j	1042a <__sfp+0x10>
   104e2:	0006b023          	sd	zero,0(a3)
   104e6:	47b1                	li	a5,12
   104e8:	c09c                	sw	a5,0(s1)
   104ea:	b765                	j	10492 <__sfp+0x78>

00000000000104ec <__sinit>:
   104ec:	653c                	ld	a5,72(a0)
   104ee:	c391                	beqz	a5,104f2 <__sinit+0x6>
   104f0:	8082                	ret
   104f2:	2381b783          	ld	a5,568(gp) # 254b0 <__stdio_exit_handler>
   104f6:	00000717          	auipc	a4,0x0
   104fa:	dce70713          	addi	a4,a4,-562 # 102c4 <cleanup_stdio>
   104fe:	e538                	sd	a4,72(a0)
   10500:	fbe5                	bnez	a5,104f0 <__sinit+0x4>
   10502:	b529                	j	1030c <global_stdio_init.part.0>

0000000000010504 <__sfp_lock_acquire>:
   10504:	8082                	ret

0000000000010506 <__sfp_lock_release>:
   10506:	8082                	ret

0000000000010508 <__fp_lock_all>:
   10508:	00014617          	auipc	a2,0x14
   1050c:	37860613          	addi	a2,a2,888 # 24880 <__sglue>
   10510:	00000597          	auipc	a1,0x0
   10514:	d9658593          	addi	a1,a1,-618 # 102a6 <__fp_lock>
   10518:	4501                	li	a0,0
   1051a:	a819                	j	10530 <_fwalk_sglue>

000000000001051c <__fp_unlock_all>:
   1051c:	00014617          	auipc	a2,0x14
   10520:	36460613          	addi	a2,a2,868 # 24880 <__sglue>
   10524:	00000597          	auipc	a1,0x0
   10528:	de458593          	addi	a1,a1,-540 # 10308 <__fp_unlock>
   1052c:	4501                	li	a0,0
   1052e:	a009                	j	10530 <_fwalk_sglue>

0000000000010530 <_fwalk_sglue>:
   10530:	715d                	addi	sp,sp,-80
   10532:	f84a                	sd	s2,48(sp)
   10534:	f44e                	sd	s3,40(sp)
   10536:	f052                	sd	s4,32(sp)
   10538:	ec56                	sd	s5,24(sp)
   1053a:	e85a                	sd	s6,16(sp)
   1053c:	e45e                	sd	s7,8(sp)
   1053e:	e062                	sd	s8,0(sp)
   10540:	e486                	sd	ra,72(sp)
   10542:	e0a2                	sd	s0,64(sp)
   10544:	fc26                	sd	s1,56(sp)
   10546:	89b2                	mv	s3,a2
   10548:	8aaa                	mv	s5,a0
   1054a:	8b2e                	mv	s6,a1
   1054c:	4901                	li	s2,0
   1054e:	0b000b93          	li	s7,176
   10552:	4c05                	li	s8,1
   10554:	5a7d                	li	s4,-1
   10556:	0089a483          	lw	s1,8(s3)
   1055a:	02905b63          	blez	s1,10590 <_fwalk_sglue+0x60>
   1055e:	1482                	slli	s1,s1,0x20
   10560:	9081                	srli	s1,s1,0x20
   10562:	037484b3          	mul	s1,s1,s7
   10566:	0109b403          	ld	s0,16(s3)
   1056a:	94a2                	add	s1,s1,s0
   1056c:	01045783          	lhu	a5,16(s0)
   10570:	00fc7c63          	bgeu	s8,a5,10588 <_fwalk_sglue+0x58>
   10574:	01241783          	lh	a5,18(s0)
   10578:	85a2                	mv	a1,s0
   1057a:	8556                	mv	a0,s5
   1057c:	01478663          	beq	a5,s4,10588 <_fwalk_sglue+0x58>
   10580:	9b02                	jalr	s6
   10582:	01256933          	or	s2,a0,s2
   10586:	2901                	sext.w	s2,s2
   10588:	0b040413          	addi	s0,s0,176
   1058c:	fe9410e3          	bne	s0,s1,1056c <_fwalk_sglue+0x3c>
   10590:	0009b983          	ld	s3,0(s3)
   10594:	fc0991e3          	bnez	s3,10556 <_fwalk_sglue+0x26>
   10598:	60a6                	ld	ra,72(sp)
   1059a:	6406                	ld	s0,64(sp)
   1059c:	74e2                	ld	s1,56(sp)
   1059e:	79a2                	ld	s3,40(sp)
   105a0:	7a02                	ld	s4,32(sp)
   105a2:	6ae2                	ld	s5,24(sp)
   105a4:	6b42                	ld	s6,16(sp)
   105a6:	6ba2                	ld	s7,8(sp)
   105a8:	6c02                	ld	s8,0(sp)
   105aa:	854a                	mv	a0,s2
   105ac:	7942                	ld	s2,48(sp)
   105ae:	6161                	addi	sp,sp,80
   105b0:	8082                	ret

00000000000105b2 <_printf_r>:
   105b2:	715d                	addi	sp,sp,-80
   105b4:	8e2e                	mv	t3,a1
   105b6:	690c                	ld	a1,16(a0)
   105b8:	02010313          	addi	t1,sp,32
   105bc:	f032                	sd	a2,32(sp)
   105be:	f436                	sd	a3,40(sp)
   105c0:	8672                	mv	a2,t3
   105c2:	869a                	mv	a3,t1
   105c4:	ec06                	sd	ra,24(sp)
   105c6:	f83a                	sd	a4,48(sp)
   105c8:	fc3e                	sd	a5,56(sp)
   105ca:	e0c2                	sd	a6,64(sp)
   105cc:	e4c6                	sd	a7,72(sp)
   105ce:	e41a                	sd	t1,8(sp)
   105d0:	637000ef          	jal	11406 <_vfprintf_r>
   105d4:	60e2                	ld	ra,24(sp)
   105d6:	6161                	addi	sp,sp,80
   105d8:	8082                	ret

00000000000105da <printf>:
   105da:	2181b303          	ld	t1,536(gp) # 25490 <_impure_ptr>
   105de:	711d                	addi	sp,sp,-96
   105e0:	f832                	sd	a2,48(sp)
   105e2:	fc36                	sd	a3,56(sp)
   105e4:	f42e                	sd	a1,40(sp)
   105e6:	e0ba                	sd	a4,64(sp)
   105e8:	e4be                	sd	a5,72(sp)
   105ea:	e8c2                	sd	a6,80(sp)
   105ec:	ecc6                	sd	a7,88(sp)
   105ee:	01033583          	ld	a1,16(t1) # 101ee <main+0x6>
   105f2:	1034                	addi	a3,sp,40
   105f4:	862a                	mv	a2,a0
   105f6:	851a                	mv	a0,t1
   105f8:	ec06                	sd	ra,24(sp)
   105fa:	e436                	sd	a3,8(sp)
   105fc:	60b000ef          	jal	11406 <_vfprintf_r>
   10600:	60e2                	ld	ra,24(sp)
   10602:	6125                	addi	sp,sp,96
   10604:	8082                	ret

0000000000010606 <scanf>:
   10606:	2181b303          	ld	t1,536(gp) # 25490 <_impure_ptr>
   1060a:	711d                	addi	sp,sp,-96
   1060c:	f832                	sd	a2,48(sp)
   1060e:	fc36                	sd	a3,56(sp)
   10610:	f42e                	sd	a1,40(sp)
   10612:	e0ba                	sd	a4,64(sp)
   10614:	e4be                	sd	a5,72(sp)
   10616:	e8c2                	sd	a6,80(sp)
   10618:	ecc6                	sd	a7,88(sp)
   1061a:	00833583          	ld	a1,8(t1)
   1061e:	1034                	addi	a3,sp,40
   10620:	862a                	mv	a2,a0
   10622:	851a                	mv	a0,t1
   10624:	ec06                	sd	ra,24(sp)
   10626:	e436                	sd	a3,8(sp)
   10628:	6b2050ef          	jal	15cda <_vfscanf_r>
   1062c:	60e2                	ld	ra,24(sp)
   1062e:	6125                	addi	sp,sp,96
   10630:	8082                	ret

0000000000010632 <_scanf_r>:
   10632:	715d                	addi	sp,sp,-80
   10634:	8e2e                	mv	t3,a1
   10636:	650c                	ld	a1,8(a0)
   10638:	02010313          	addi	t1,sp,32
   1063c:	f032                	sd	a2,32(sp)
   1063e:	f436                	sd	a3,40(sp)
   10640:	8672                	mv	a2,t3
   10642:	869a                	mv	a3,t1
   10644:	ec06                	sd	ra,24(sp)
   10646:	f83a                	sd	a4,48(sp)
   10648:	fc3e                	sd	a5,56(sp)
   1064a:	e0c2                	sd	a6,64(sp)
   1064c:	e4c6                	sd	a7,72(sp)
   1064e:	e41a                	sd	t1,8(sp)
   10650:	68a050ef          	jal	15cda <_vfscanf_r>
   10654:	60e2                	ld	ra,24(sp)
   10656:	6161                	addi	sp,sp,80
   10658:	8082                	ret

000000000001065a <__sread>:
   1065a:	1141                	addi	sp,sp,-16
   1065c:	e022                	sd	s0,0(sp)
   1065e:	842e                	mv	s0,a1
   10660:	01259583          	lh	a1,18(a1)
   10664:	e406                	sd	ra,8(sp)
   10666:	1b6000ef          	jal	1081c <_read_r>
   1066a:	00054963          	bltz	a0,1067c <__sread+0x22>
   1066e:	685c                	ld	a5,144(s0)
   10670:	60a2                	ld	ra,8(sp)
   10672:	97aa                	add	a5,a5,a0
   10674:	e85c                	sd	a5,144(s0)
   10676:	6402                	ld	s0,0(sp)
   10678:	0141                	addi	sp,sp,16
   1067a:	8082                	ret
   1067c:	01045783          	lhu	a5,16(s0)
   10680:	777d                	lui	a4,0xfffff
   10682:	177d                	addi	a4,a4,-1 # ffffffffffffefff <__BSS_END__+0xfffffffffffd9587>
   10684:	8ff9                	and	a5,a5,a4
   10686:	60a2                	ld	ra,8(sp)
   10688:	00f41823          	sh	a5,16(s0)
   1068c:	6402                	ld	s0,0(sp)
   1068e:	0141                	addi	sp,sp,16
   10690:	8082                	ret

0000000000010692 <__seofread>:
   10692:	4501                	li	a0,0
   10694:	8082                	ret

0000000000010696 <__swrite>:
   10696:	01059783          	lh	a5,16(a1)
   1069a:	7179                	addi	sp,sp,-48
   1069c:	8336                	mv	t1,a3
   1069e:	f406                	sd	ra,40(sp)
   106a0:	1007f693          	andi	a3,a5,256
   106a4:	872e                	mv	a4,a1
   106a6:	88b2                	mv	a7,a2
   106a8:	882a                	mv	a6,a0
   106aa:	ee91                	bnez	a3,106c6 <__swrite+0x30>
   106ac:	76fd                	lui	a3,0xfffff
   106ae:	16fd                	addi	a3,a3,-1 # ffffffffffffefff <__BSS_END__+0xfffffffffffd9587>
   106b0:	70a2                	ld	ra,40(sp)
   106b2:	8ff5                	and	a5,a5,a3
   106b4:	01271583          	lh	a1,18(a4)
   106b8:	00f71823          	sh	a5,16(a4)
   106bc:	869a                	mv	a3,t1
   106be:	8646                	mv	a2,a7
   106c0:	8542                	mv	a0,a6
   106c2:	6145                	addi	sp,sp,48
   106c4:	a279                	j	10852 <_write_r>
   106c6:	01259583          	lh	a1,18(a1)
   106ca:	e832                	sd	a2,16(sp)
   106cc:	4689                	li	a3,2
   106ce:	4601                	li	a2,0
   106d0:	ec1a                	sd	t1,24(sp)
   106d2:	e03a                	sd	a4,0(sp)
   106d4:	e42a                	sd	a0,8(sp)
   106d6:	110000ef          	jal	107e6 <_lseek_r>
   106da:	6702                	ld	a4,0(sp)
   106dc:	6362                	ld	t1,24(sp)
   106de:	68c2                	ld	a7,16(sp)
   106e0:	01071783          	lh	a5,16(a4)
   106e4:	6822                	ld	a6,8(sp)
   106e6:	b7d9                	j	106ac <__swrite+0x16>

00000000000106e8 <__sseek>:
   106e8:	1141                	addi	sp,sp,-16
   106ea:	e022                	sd	s0,0(sp)
   106ec:	842e                	mv	s0,a1
   106ee:	01259583          	lh	a1,18(a1)
   106f2:	e406                	sd	ra,8(sp)
   106f4:	0f2000ef          	jal	107e6 <_lseek_r>
   106f8:	577d                	li	a4,-1
   106fa:	01041783          	lh	a5,16(s0)
   106fe:	00e50b63          	beq	a0,a4,10714 <__sseek+0x2c>
   10702:	6705                	lui	a4,0x1
   10704:	8fd9                	or	a5,a5,a4
   10706:	60a2                	ld	ra,8(sp)
   10708:	e848                	sd	a0,144(s0)
   1070a:	00f41823          	sh	a5,16(s0)
   1070e:	6402                	ld	s0,0(sp)
   10710:	0141                	addi	sp,sp,16
   10712:	8082                	ret
   10714:	80050713          	addi	a4,a0,-2048
   10718:	80070713          	addi	a4,a4,-2048 # 800 <exit-0xf920>
   1071c:	8ff9                	and	a5,a5,a4
   1071e:	60a2                	ld	ra,8(sp)
   10720:	00f41823          	sh	a5,16(s0)
   10724:	6402                	ld	s0,0(sp)
   10726:	0141                	addi	sp,sp,16
   10728:	8082                	ret

000000000001072a <__sclose>:
   1072a:	01259583          	lh	a1,18(a1)
   1072e:	a009                	j	10730 <_close_r>

0000000000010730 <_close_r>:
   10730:	1141                	addi	sp,sp,-16
   10732:	e022                	sd	s0,0(sp)
   10734:	842a                	mv	s0,a0
   10736:	852e                	mv	a0,a1
   10738:	2401a023          	sw	zero,576(gp) # 254b8 <errno>
   1073c:	e406                	sd	ra,8(sp)
   1073e:	23f100ef          	jal	2117c <_close>
   10742:	57fd                	li	a5,-1
   10744:	00f50663          	beq	a0,a5,10750 <_close_r+0x20>
   10748:	60a2                	ld	ra,8(sp)
   1074a:	6402                	ld	s0,0(sp)
   1074c:	0141                	addi	sp,sp,16
   1074e:	8082                	ret
   10750:	2401a783          	lw	a5,576(gp) # 254b8 <errno>
   10754:	dbf5                	beqz	a5,10748 <_close_r+0x18>
   10756:	60a2                	ld	ra,8(sp)
   10758:	c01c                	sw	a5,0(s0)
   1075a:	6402                	ld	s0,0(sp)
   1075c:	0141                	addi	sp,sp,16
   1075e:	8082                	ret

0000000000010760 <_reclaim_reent>:
   10760:	2181b783          	ld	a5,536(gp) # 25490 <_impure_ptr>
   10764:	08a78063          	beq	a5,a0,107e4 <_reclaim_reent+0x84>
   10768:	752c                	ld	a1,104(a0)
   1076a:	7179                	addi	sp,sp,-48
   1076c:	ec26                	sd	s1,24(sp)
   1076e:	f406                	sd	ra,40(sp)
   10770:	f022                	sd	s0,32(sp)
   10772:	84aa                	mv	s1,a0
   10774:	c98d                	beqz	a1,107a6 <_reclaim_reent+0x46>
   10776:	e84a                	sd	s2,16(sp)
   10778:	e44e                	sd	s3,8(sp)
   1077a:	4901                	li	s2,0
   1077c:	20000993          	li	s3,512
   10780:	012587b3          	add	a5,a1,s2
   10784:	6380                	ld	s0,0(a5)
   10786:	c801                	beqz	s0,10796 <_reclaim_reent+0x36>
   10788:	85a2                	mv	a1,s0
   1078a:	6000                	ld	s0,0(s0)
   1078c:	8526                	mv	a0,s1
   1078e:	3b8000ef          	jal	10b46 <_free_r>
   10792:	f87d                	bnez	s0,10788 <_reclaim_reent+0x28>
   10794:	74ac                	ld	a1,104(s1)
   10796:	0921                	addi	s2,s2,8
   10798:	ff3914e3          	bne	s2,s3,10780 <_reclaim_reent+0x20>
   1079c:	8526                	mv	a0,s1
   1079e:	3a8000ef          	jal	10b46 <_free_r>
   107a2:	6942                	ld	s2,16(sp)
   107a4:	69a2                	ld	s3,8(sp)
   107a6:	68ac                	ld	a1,80(s1)
   107a8:	c581                	beqz	a1,107b0 <_reclaim_reent+0x50>
   107aa:	8526                	mv	a0,s1
   107ac:	39a000ef          	jal	10b46 <_free_r>
   107b0:	70a0                	ld	s0,96(s1)
   107b2:	c419                	beqz	s0,107c0 <_reclaim_reent+0x60>
   107b4:	85a2                	mv	a1,s0
   107b6:	6000                	ld	s0,0(s0)
   107b8:	8526                	mv	a0,s1
   107ba:	38c000ef          	jal	10b46 <_free_r>
   107be:	f87d                	bnez	s0,107b4 <_reclaim_reent+0x54>
   107c0:	7cac                	ld	a1,120(s1)
   107c2:	c581                	beqz	a1,107ca <_reclaim_reent+0x6a>
   107c4:	8526                	mv	a0,s1
   107c6:	380000ef          	jal	10b46 <_free_r>
   107ca:	64bc                	ld	a5,72(s1)
   107cc:	c799                	beqz	a5,107da <_reclaim_reent+0x7a>
   107ce:	7402                	ld	s0,32(sp)
   107d0:	70a2                	ld	ra,40(sp)
   107d2:	8526                	mv	a0,s1
   107d4:	64e2                	ld	s1,24(sp)
   107d6:	6145                	addi	sp,sp,48
   107d8:	8782                	jr	a5
   107da:	70a2                	ld	ra,40(sp)
   107dc:	7402                	ld	s0,32(sp)
   107de:	64e2                	ld	s1,24(sp)
   107e0:	6145                	addi	sp,sp,48
   107e2:	8082                	ret
   107e4:	8082                	ret

00000000000107e6 <_lseek_r>:
   107e6:	87ae                	mv	a5,a1
   107e8:	1141                	addi	sp,sp,-16
   107ea:	e022                	sd	s0,0(sp)
   107ec:	85b2                	mv	a1,a2
   107ee:	842a                	mv	s0,a0
   107f0:	8636                	mv	a2,a3
   107f2:	853e                	mv	a0,a5
   107f4:	e406                	sd	ra,8(sp)
   107f6:	2401a023          	sw	zero,576(gp) # 254b8 <errno>
   107fa:	24f100ef          	jal	21248 <_lseek>
   107fe:	57fd                	li	a5,-1
   10800:	00f50663          	beq	a0,a5,1080c <_lseek_r+0x26>
   10804:	60a2                	ld	ra,8(sp)
   10806:	6402                	ld	s0,0(sp)
   10808:	0141                	addi	sp,sp,16
   1080a:	8082                	ret
   1080c:	2401a783          	lw	a5,576(gp) # 254b8 <errno>
   10810:	dbf5                	beqz	a5,10804 <_lseek_r+0x1e>
   10812:	60a2                	ld	ra,8(sp)
   10814:	c01c                	sw	a5,0(s0)
   10816:	6402                	ld	s0,0(sp)
   10818:	0141                	addi	sp,sp,16
   1081a:	8082                	ret

000000000001081c <_read_r>:
   1081c:	87ae                	mv	a5,a1
   1081e:	1141                	addi	sp,sp,-16
   10820:	e022                	sd	s0,0(sp)
   10822:	85b2                	mv	a1,a2
   10824:	842a                	mv	s0,a0
   10826:	8636                	mv	a2,a3
   10828:	853e                	mv	a0,a5
   1082a:	e406                	sd	ra,8(sp)
   1082c:	2401a023          	sw	zero,576(gp) # 254b8 <errno>
   10830:	243100ef          	jal	21272 <_read>
   10834:	57fd                	li	a5,-1
   10836:	00f50663          	beq	a0,a5,10842 <_read_r+0x26>
   1083a:	60a2                	ld	ra,8(sp)
   1083c:	6402                	ld	s0,0(sp)
   1083e:	0141                	addi	sp,sp,16
   10840:	8082                	ret
   10842:	2401a783          	lw	a5,576(gp) # 254b8 <errno>
   10846:	dbf5                	beqz	a5,1083a <_read_r+0x1e>
   10848:	60a2                	ld	ra,8(sp)
   1084a:	c01c                	sw	a5,0(s0)
   1084c:	6402                	ld	s0,0(sp)
   1084e:	0141                	addi	sp,sp,16
   10850:	8082                	ret

0000000000010852 <_write_r>:
   10852:	87ae                	mv	a5,a1
   10854:	1141                	addi	sp,sp,-16
   10856:	e022                	sd	s0,0(sp)
   10858:	85b2                	mv	a1,a2
   1085a:	842a                	mv	s0,a0
   1085c:	8636                	mv	a2,a3
   1085e:	853e                	mv	a0,a5
   10860:	e406                	sd	ra,8(sp)
   10862:	2401a023          	sw	zero,576(gp) # 254b8 <errno>
   10866:	287100ef          	jal	212ec <_write>
   1086a:	57fd                	li	a5,-1
   1086c:	00f50663          	beq	a0,a5,10878 <_write_r+0x26>
   10870:	60a2                	ld	ra,8(sp)
   10872:	6402                	ld	s0,0(sp)
   10874:	0141                	addi	sp,sp,16
   10876:	8082                	ret
   10878:	2401a783          	lw	a5,576(gp) # 254b8 <errno>
   1087c:	dbf5                	beqz	a5,10870 <_write_r+0x1e>
   1087e:	60a2                	ld	ra,8(sp)
   10880:	c01c                	sw	a5,0(s0)
   10882:	6402                	ld	s0,0(sp)
   10884:	0141                	addi	sp,sp,16
   10886:	8082                	ret

0000000000010888 <__libc_init_array>:
   10888:	1101                	addi	sp,sp,-32
   1088a:	e822                	sd	s0,16(sp)
   1088c:	e04a                	sd	s2,0(sp)
   1088e:	ec06                	sd	ra,24(sp)
   10890:	e426                	sd	s1,8(sp)
   10892:	00014917          	auipc	s2,0x14
   10896:	fd290913          	addi	s2,s2,-46 # 24864 <__preinit_array_end>
   1089a:	00014417          	auipc	s0,0x14
   1089e:	fca40413          	addi	s0,s0,-54 # 24864 <__preinit_array_end>
   108a2:	00890d63          	beq	s2,s0,108bc <__libc_init_array+0x34>
   108a6:	40890933          	sub	s2,s2,s0
   108aa:	40395913          	srai	s2,s2,0x3
   108ae:	4481                	li	s1,0
   108b0:	601c                	ld	a5,0(s0)
   108b2:	0485                	addi	s1,s1,1
   108b4:	0421                	addi	s0,s0,8
   108b6:	9782                	jalr	a5
   108b8:	ff24ece3          	bltu	s1,s2,108b0 <__libc_init_array+0x28>
   108bc:	00014917          	auipc	s2,0x14
   108c0:	fbc90913          	addi	s2,s2,-68 # 24878 <__do_global_dtors_aux_fini_array_entry>
   108c4:	00014417          	auipc	s0,0x14
   108c8:	fa440413          	addi	s0,s0,-92 # 24868 <__init_array_start>
   108cc:	00890d63          	beq	s2,s0,108e6 <__libc_init_array+0x5e>
   108d0:	40890933          	sub	s2,s2,s0
   108d4:	40395913          	srai	s2,s2,0x3
   108d8:	4481                	li	s1,0
   108da:	601c                	ld	a5,0(s0)
   108dc:	0485                	addi	s1,s1,1
   108de:	0421                	addi	s0,s0,8
   108e0:	9782                	jalr	a5
   108e2:	ff24ece3          	bltu	s1,s2,108da <__libc_init_array+0x52>
   108e6:	60e2                	ld	ra,24(sp)
   108e8:	6442                	ld	s0,16(sp)
   108ea:	64a2                	ld	s1,8(sp)
   108ec:	6902                	ld	s2,0(sp)
   108ee:	6105                	addi	sp,sp,32
   108f0:	8082                	ret

00000000000108f2 <memset>:
   108f2:	433d                	li	t1,15
   108f4:	872a                	mv	a4,a0
   108f6:	02c37163          	bgeu	t1,a2,10918 <memset+0x26>
   108fa:	00f77793          	andi	a5,a4,15
   108fe:	e3c1                	bnez	a5,1097e <memset+0x8c>
   10900:	e1bd                	bnez	a1,10966 <memset+0x74>
   10902:	ff067693          	andi	a3,a2,-16
   10906:	8a3d                	andi	a2,a2,15
   10908:	96ba                	add	a3,a3,a4
   1090a:	e30c                	sd	a1,0(a4)
   1090c:	e70c                	sd	a1,8(a4)
   1090e:	0741                	addi	a4,a4,16
   10910:	fed76de3          	bltu	a4,a3,1090a <memset+0x18>
   10914:	e211                	bnez	a2,10918 <memset+0x26>
   10916:	8082                	ret
   10918:	40c306b3          	sub	a3,t1,a2
   1091c:	068a                	slli	a3,a3,0x2
   1091e:	00000297          	auipc	t0,0x0
   10922:	9696                	add	a3,a3,t0
   10924:	00a68067          	jr	10(a3)
   10928:	00b70723          	sb	a1,14(a4)
   1092c:	00b706a3          	sb	a1,13(a4)
   10930:	00b70623          	sb	a1,12(a4)
   10934:	00b705a3          	sb	a1,11(a4)
   10938:	00b70523          	sb	a1,10(a4)
   1093c:	00b704a3          	sb	a1,9(a4)
   10940:	00b70423          	sb	a1,8(a4)
   10944:	00b703a3          	sb	a1,7(a4)
   10948:	00b70323          	sb	a1,6(a4)
   1094c:	00b702a3          	sb	a1,5(a4)
   10950:	00b70223          	sb	a1,4(a4)
   10954:	00b701a3          	sb	a1,3(a4)
   10958:	00b70123          	sb	a1,2(a4)
   1095c:	00b700a3          	sb	a1,1(a4)
   10960:	00b70023          	sb	a1,0(a4)
   10964:	8082                	ret
   10966:	0ff5f593          	zext.b	a1,a1
   1096a:	00859693          	slli	a3,a1,0x8
   1096e:	8dd5                	or	a1,a1,a3
   10970:	01059693          	slli	a3,a1,0x10
   10974:	8dd5                	or	a1,a1,a3
   10976:	02059693          	slli	a3,a1,0x20
   1097a:	8dd5                	or	a1,a1,a3
   1097c:	b759                	j	10902 <memset+0x10>
   1097e:	00279693          	slli	a3,a5,0x2
   10982:	00000297          	auipc	t0,0x0
   10986:	9696                	add	a3,a3,t0
   10988:	8286                	mv	t0,ra
   1098a:	fa2680e7          	jalr	-94(a3)
   1098e:	8096                	mv	ra,t0
   10990:	17c1                	addi	a5,a5,-16
   10992:	8f1d                	sub	a4,a4,a5
   10994:	963e                	add	a2,a2,a5
   10996:	f8c371e3          	bgeu	t1,a2,10918 <memset+0x26>
   1099a:	b79d                	j	10900 <memset+0xe>

000000000001099c <__call_exitprocs>:
   1099c:	715d                	addi	sp,sp,-80
   1099e:	f052                	sd	s4,32(sp)
   109a0:	24818a13          	addi	s4,gp,584 # 254c0 <__atexit>
   109a4:	f84a                	sd	s2,48(sp)
   109a6:	000a3903          	ld	s2,0(s4)
   109aa:	e486                	sd	ra,72(sp)
   109ac:	04090863          	beqz	s2,109fc <__call_exitprocs+0x60>
   109b0:	f44e                	sd	s3,40(sp)
   109b2:	ec56                	sd	s5,24(sp)
   109b4:	e85a                	sd	s6,16(sp)
   109b6:	e45e                	sd	s7,8(sp)
   109b8:	e0a2                	sd	s0,64(sp)
   109ba:	fc26                	sd	s1,56(sp)
   109bc:	e062                	sd	s8,0(sp)
   109be:	8b2a                	mv	s6,a0
   109c0:	8bae                	mv	s7,a1
   109c2:	59fd                	li	s3,-1
   109c4:	4a85                	li	s5,1
   109c6:	00892403          	lw	s0,8(s2)
   109ca:	347d                	addiw	s0,s0,-1
   109cc:	02044163          	bltz	s0,109ee <__call_exitprocs+0x52>
   109d0:	01090493          	addi	s1,s2,16
   109d4:	00341793          	slli	a5,s0,0x3
   109d8:	94be                	add	s1,s1,a5
   109da:	020b8663          	beqz	s7,10a06 <__call_exitprocs+0x6a>
   109de:	2004b783          	ld	a5,512(s1)
   109e2:	03778263          	beq	a5,s7,10a06 <__call_exitprocs+0x6a>
   109e6:	347d                	addiw	s0,s0,-1
   109e8:	14e1                	addi	s1,s1,-8
   109ea:	ff341ae3          	bne	s0,s3,109de <__call_exitprocs+0x42>
   109ee:	6406                	ld	s0,64(sp)
   109f0:	74e2                	ld	s1,56(sp)
   109f2:	79a2                	ld	s3,40(sp)
   109f4:	6ae2                	ld	s5,24(sp)
   109f6:	6b42                	ld	s6,16(sp)
   109f8:	6ba2                	ld	s7,8(sp)
   109fa:	6c02                	ld	s8,0(sp)
   109fc:	60a6                	ld	ra,72(sp)
   109fe:	7942                	ld	s2,48(sp)
   10a00:	7a02                	ld	s4,32(sp)
   10a02:	6161                	addi	sp,sp,80
   10a04:	8082                	ret
   10a06:	00892783          	lw	a5,8(s2)
   10a0a:	6094                	ld	a3,0(s1)
   10a0c:	37fd                	addiw	a5,a5,-1
   10a0e:	04878c63          	beq	a5,s0,10a66 <__call_exitprocs+0xca>
   10a12:	0004b023          	sd	zero,0(s1)
   10a16:	c295                	beqz	a3,10a3a <__call_exitprocs+0x9e>
   10a18:	31092783          	lw	a5,784(s2)
   10a1c:	008a973b          	sllw	a4,s5,s0
   10a20:	00892c03          	lw	s8,8(s2)
   10a24:	8ff9                	and	a5,a5,a4
   10a26:	ef99                	bnez	a5,10a44 <__call_exitprocs+0xa8>
   10a28:	9682                	jalr	a3
   10a2a:	00892703          	lw	a4,8(s2)
   10a2e:	000a3783          	ld	a5,0(s4)
   10a32:	03871763          	bne	a4,s8,10a60 <__call_exitprocs+0xc4>
   10a36:	03279563          	bne	a5,s2,10a60 <__call_exitprocs+0xc4>
   10a3a:	347d                	addiw	s0,s0,-1
   10a3c:	14e1                	addi	s1,s1,-8
   10a3e:	f9341ee3          	bne	s0,s3,109da <__call_exitprocs+0x3e>
   10a42:	b775                	j	109ee <__call_exitprocs+0x52>
   10a44:	31492783          	lw	a5,788(s2)
   10a48:	1004b583          	ld	a1,256(s1)
   10a4c:	8f7d                	and	a4,a4,a5
   10a4e:	ef19                	bnez	a4,10a6c <__call_exitprocs+0xd0>
   10a50:	855a                	mv	a0,s6
   10a52:	9682                	jalr	a3
   10a54:	00892703          	lw	a4,8(s2)
   10a58:	000a3783          	ld	a5,0(s4)
   10a5c:	fd870de3          	beq	a4,s8,10a36 <__call_exitprocs+0x9a>
   10a60:	d7d9                	beqz	a5,109ee <__call_exitprocs+0x52>
   10a62:	893e                	mv	s2,a5
   10a64:	b78d                	j	109c6 <__call_exitprocs+0x2a>
   10a66:	00892423          	sw	s0,8(s2)
   10a6a:	b775                	j	10a16 <__call_exitprocs+0x7a>
   10a6c:	852e                	mv	a0,a1
   10a6e:	9682                	jalr	a3
   10a70:	bf6d                	j	10a2a <__call_exitprocs+0x8e>

0000000000010a72 <atexit>:
   10a72:	85aa                	mv	a1,a0
   10a74:	4681                	li	a3,0
   10a76:	4601                	li	a2,0
   10a78:	4501                	li	a0,0
   10a7a:	5dc0606f          	j	17056 <__register_exitproc>

0000000000010a7e <_malloc_trim_r>:
   10a7e:	7179                	addi	sp,sp,-48
   10a80:	f022                	sd	s0,32(sp)
   10a82:	ec26                	sd	s1,24(sp)
   10a84:	e84a                	sd	s2,16(sp)
   10a86:	e44e                	sd	s3,8(sp)
   10a88:	842e                	mv	s0,a1
   10a8a:	f406                	sd	ra,40(sp)
   10a8c:	892a                	mv	s2,a0
   10a8e:	00014997          	auipc	s3,0x14
   10a92:	f6298993          	addi	s3,s3,-158 # 249f0 <__malloc_av_>
   10a96:	16d000ef          	jal	11402 <__malloc_lock>
   10a9a:	0109b783          	ld	a5,16(s3)
   10a9e:	6705                	lui	a4,0x1
   10aa0:	6784                	ld	s1,8(a5)
   10aa2:	98f1                	andi	s1,s1,-4
   10aa4:	7ff48793          	addi	a5,s1,2047
   10aa8:	7e078793          	addi	a5,a5,2016
   10aac:	40878433          	sub	s0,a5,s0
   10ab0:	8031                	srli	s0,s0,0xc
   10ab2:	147d                	addi	s0,s0,-1
   10ab4:	0432                	slli	s0,s0,0xc
   10ab6:	00e44b63          	blt	s0,a4,10acc <_malloc_trim_r+0x4e>
   10aba:	4581                	li	a1,0
   10abc:	854a                	mv	a0,s2
   10abe:	134060ef          	jal	16bf2 <_sbrk_r>
   10ac2:	0109b783          	ld	a5,16(s3)
   10ac6:	97a6                	add	a5,a5,s1
   10ac8:	00f50d63          	beq	a0,a5,10ae2 <_malloc_trim_r+0x64>
   10acc:	854a                	mv	a0,s2
   10ace:	137000ef          	jal	11404 <__malloc_unlock>
   10ad2:	70a2                	ld	ra,40(sp)
   10ad4:	7402                	ld	s0,32(sp)
   10ad6:	64e2                	ld	s1,24(sp)
   10ad8:	6942                	ld	s2,16(sp)
   10ada:	69a2                	ld	s3,8(sp)
   10adc:	4501                	li	a0,0
   10ade:	6145                	addi	sp,sp,48
   10ae0:	8082                	ret
   10ae2:	408005b3          	neg	a1,s0
   10ae6:	854a                	mv	a0,s2
   10ae8:	10a060ef          	jal	16bf2 <_sbrk_r>
   10aec:	57fd                	li	a5,-1
   10aee:	02f50863          	beq	a0,a5,10b1e <_malloc_trim_r+0xa0>
   10af2:	0109b703          	ld	a4,16(s3)
   10af6:	4c01a783          	lw	a5,1216(gp) # 25738 <__malloc_current_mallinfo>
   10afa:	8c81                	sub	s1,s1,s0
   10afc:	0014e493          	ori	s1,s1,1
   10b00:	e704                	sd	s1,8(a4)
   10b02:	854a                	mv	a0,s2
   10b04:	9f81                	subw	a5,a5,s0
   10b06:	4cf1a023          	sw	a5,1216(gp) # 25738 <__malloc_current_mallinfo>
   10b0a:	0fb000ef          	jal	11404 <__malloc_unlock>
   10b0e:	70a2                	ld	ra,40(sp)
   10b10:	7402                	ld	s0,32(sp)
   10b12:	64e2                	ld	s1,24(sp)
   10b14:	6942                	ld	s2,16(sp)
   10b16:	69a2                	ld	s3,8(sp)
   10b18:	4505                	li	a0,1
   10b1a:	6145                	addi	sp,sp,48
   10b1c:	8082                	ret
   10b1e:	4581                	li	a1,0
   10b20:	854a                	mv	a0,s2
   10b22:	0d0060ef          	jal	16bf2 <_sbrk_r>
   10b26:	0109b703          	ld	a4,16(s3)
   10b2a:	46fd                	li	a3,31
   10b2c:	40e507b3          	sub	a5,a0,a4
   10b30:	f8f6dee3          	bge	a3,a5,10acc <_malloc_trim_r+0x4e>
   10b34:	2201b683          	ld	a3,544(gp) # 25498 <__malloc_sbrk_base>
   10b38:	0017e793          	ori	a5,a5,1
   10b3c:	e71c                	sd	a5,8(a4)
   10b3e:	8d15                	sub	a0,a0,a3
   10b40:	4ca1a023          	sw	a0,1216(gp) # 25738 <__malloc_current_mallinfo>
   10b44:	b761                	j	10acc <_malloc_trim_r+0x4e>

0000000000010b46 <_free_r>:
   10b46:	c5e5                	beqz	a1,10c2e <_free_r+0xe8>
   10b48:	1101                	addi	sp,sp,-32
   10b4a:	e822                	sd	s0,16(sp)
   10b4c:	e42e                	sd	a1,8(sp)
   10b4e:	842a                	mv	s0,a0
   10b50:	ec06                	sd	ra,24(sp)
   10b52:	0b1000ef          	jal	11402 <__malloc_lock>
   10b56:	65a2                	ld	a1,8(sp)
   10b58:	00014897          	auipc	a7,0x14
   10b5c:	e9888893          	addi	a7,a7,-360 # 249f0 <__malloc_av_>
   10b60:	0108b803          	ld	a6,16(a7)
   10b64:	ff85b503          	ld	a0,-8(a1)
   10b68:	ff058713          	addi	a4,a1,-16
   10b6c:	ffe57793          	andi	a5,a0,-2
   10b70:	00f70633          	add	a2,a4,a5
   10b74:	6614                	ld	a3,8(a2)
   10b76:	00157313          	andi	t1,a0,1
   10b7a:	9af1                	andi	a3,a3,-4
   10b7c:	12c80563          	beq	a6,a2,10ca6 <_free_r+0x160>
   10b80:	e614                	sd	a3,8(a2)
   10b82:	00d60833          	add	a6,a2,a3
   10b86:	00883803          	ld	a6,8(a6)
   10b8a:	00187813          	andi	a6,a6,1
   10b8e:	06031b63          	bnez	t1,10c04 <_free_r+0xbe>
   10b92:	ff05b303          	ld	t1,-16(a1)
   10b96:	00014517          	auipc	a0,0x14
   10b9a:	e6a50513          	addi	a0,a0,-406 # 24a00 <__malloc_av_+0x10>
   10b9e:	40670733          	sub	a4,a4,t1
   10ba2:	6b0c                	ld	a1,16(a4)
   10ba4:	979a                	add	a5,a5,t1
   10ba6:	0ea58363          	beq	a1,a0,10c8c <_free_r+0x146>
   10baa:	01873303          	ld	t1,24(a4) # 1018 <exit-0xf108>
   10bae:	0065bc23          	sd	t1,24(a1)
   10bb2:	00b33823          	sd	a1,16(t1)
   10bb6:	12080263          	beqz	a6,10cda <_free_r+0x194>
   10bba:	0017e693          	ori	a3,a5,1
   10bbe:	e714                	sd	a3,8(a4)
   10bc0:	e21c                	sd	a5,0(a2)
   10bc2:	1ff00693          	li	a3,511
   10bc6:	06f6ee63          	bltu	a3,a5,10c42 <_free_r+0xfc>
   10bca:	838d                	srli	a5,a5,0x3
   10bcc:	00179693          	slli	a3,a5,0x1
   10bd0:	2689                	addiw	a3,a3,2
   10bd2:	068e                	slli	a3,a3,0x3
   10bd4:	0088b503          	ld	a0,8(a7)
   10bd8:	96c6                	add	a3,a3,a7
   10bda:	628c                	ld	a1,0(a3)
   10bdc:	4027d61b          	sraiw	a2,a5,0x2
   10be0:	4785                	li	a5,1
   10be2:	00c797b3          	sll	a5,a5,a2
   10be6:	8fc9                	or	a5,a5,a0
   10be8:	ff068613          	addi	a2,a3,-16
   10bec:	eb0c                	sd	a1,16(a4)
   10bee:	ef10                	sd	a2,24(a4)
   10bf0:	00f8b423          	sd	a5,8(a7)
   10bf4:	e298                	sd	a4,0(a3)
   10bf6:	ed98                	sd	a4,24(a1)
   10bf8:	8522                	mv	a0,s0
   10bfa:	6442                	ld	s0,16(sp)
   10bfc:	60e2                	ld	ra,24(sp)
   10bfe:	6105                	addi	sp,sp,32
   10c00:	0050006f          	j	11404 <__malloc_unlock>
   10c04:	02081663          	bnez	a6,10c30 <_free_r+0xea>
   10c08:	97b6                	add	a5,a5,a3
   10c0a:	00014517          	auipc	a0,0x14
   10c0e:	df650513          	addi	a0,a0,-522 # 24a00 <__malloc_av_+0x10>
   10c12:	6a14                	ld	a3,16(a2)
   10c14:	0017e813          	ori	a6,a5,1
   10c18:	00f705b3          	add	a1,a4,a5
   10c1c:	0ea68f63          	beq	a3,a0,10d1a <_free_r+0x1d4>
   10c20:	6e10                	ld	a2,24(a2)
   10c22:	ee90                	sd	a2,24(a3)
   10c24:	ea14                	sd	a3,16(a2)
   10c26:	01073423          	sd	a6,8(a4)
   10c2a:	e19c                	sd	a5,0(a1)
   10c2c:	bf59                	j	10bc2 <_free_r+0x7c>
   10c2e:	8082                	ret
   10c30:	00156513          	ori	a0,a0,1
   10c34:	fea5bc23          	sd	a0,-8(a1)
   10c38:	e21c                	sd	a5,0(a2)
   10c3a:	1ff00693          	li	a3,511
   10c3e:	f8f6f6e3          	bgeu	a3,a5,10bca <_free_r+0x84>
   10c42:	0097d693          	srli	a3,a5,0x9
   10c46:	4611                	li	a2,4
   10c48:	08d66b63          	bltu	a2,a3,10cde <_free_r+0x198>
   10c4c:	0067d693          	srli	a3,a5,0x6
   10c50:	00169593          	slli	a1,a3,0x1
   10c54:	0725859b          	addiw	a1,a1,114
   10c58:	058e                	slli	a1,a1,0x3
   10c5a:	0386861b          	addiw	a2,a3,56
   10c5e:	95c6                	add	a1,a1,a7
   10c60:	6194                	ld	a3,0(a1)
   10c62:	15c1                	addi	a1,a1,-16
   10c64:	00d59663          	bne	a1,a3,10c70 <_free_r+0x12a>
   10c68:	a0d9                	j	10d2e <_free_r+0x1e8>
   10c6a:	6a94                	ld	a3,16(a3)
   10c6c:	00d58663          	beq	a1,a3,10c78 <_free_r+0x132>
   10c70:	6690                	ld	a2,8(a3)
   10c72:	9a71                	andi	a2,a2,-4
   10c74:	fec7ebe3          	bltu	a5,a2,10c6a <_free_r+0x124>
   10c78:	6e8c                	ld	a1,24(a3)
   10c7a:	ef0c                	sd	a1,24(a4)
   10c7c:	eb14                	sd	a3,16(a4)
   10c7e:	8522                	mv	a0,s0
   10c80:	6442                	ld	s0,16(sp)
   10c82:	60e2                	ld	ra,24(sp)
   10c84:	e998                	sd	a4,16(a1)
   10c86:	ee98                	sd	a4,24(a3)
   10c88:	6105                	addi	sp,sp,32
   10c8a:	afad                	j	11404 <__malloc_unlock>
   10c8c:	06081a63          	bnez	a6,10d00 <_free_r+0x1ba>
   10c90:	6e0c                	ld	a1,24(a2)
   10c92:	6a10                	ld	a2,16(a2)
   10c94:	96be                	add	a3,a3,a5
   10c96:	0016e793          	ori	a5,a3,1
   10c9a:	ee0c                	sd	a1,24(a2)
   10c9c:	e990                	sd	a2,16(a1)
   10c9e:	e71c                	sd	a5,8(a4)
   10ca0:	9736                	add	a4,a4,a3
   10ca2:	e314                	sd	a3,0(a4)
   10ca4:	bf91                	j	10bf8 <_free_r+0xb2>
   10ca6:	96be                	add	a3,a3,a5
   10ca8:	00031a63          	bnez	t1,10cbc <_free_r+0x176>
   10cac:	ff05b783          	ld	a5,-16(a1)
   10cb0:	8f1d                	sub	a4,a4,a5
   10cb2:	6b10                	ld	a2,16(a4)
   10cb4:	96be                	add	a3,a3,a5
   10cb6:	6f1c                	ld	a5,24(a4)
   10cb8:	ee1c                	sd	a5,24(a2)
   10cba:	eb90                	sd	a2,16(a5)
   10cbc:	0016e613          	ori	a2,a3,1
   10cc0:	2281b783          	ld	a5,552(gp) # 254a0 <__malloc_trim_threshold>
   10cc4:	e710                	sd	a2,8(a4)
   10cc6:	00e8b823          	sd	a4,16(a7)
   10cca:	f2f6e7e3          	bltu	a3,a5,10bf8 <_free_r+0xb2>
   10cce:	2601b583          	ld	a1,608(gp) # 254d8 <__malloc_top_pad>
   10cd2:	8522                	mv	a0,s0
   10cd4:	dabff0ef          	jal	10a7e <_malloc_trim_r>
   10cd8:	b705                	j	10bf8 <_free_r+0xb2>
   10cda:	97b6                	add	a5,a5,a3
   10cdc:	bf1d                	j	10c12 <_free_r+0xcc>
   10cde:	4651                	li	a2,20
   10ce0:	02d67563          	bgeu	a2,a3,10d0a <_free_r+0x1c4>
   10ce4:	05400613          	li	a2,84
   10ce8:	04d66e63          	bltu	a2,a3,10d44 <_free_r+0x1fe>
   10cec:	00c7d693          	srli	a3,a5,0xc
   10cf0:	00169593          	slli	a1,a3,0x1
   10cf4:	0de5859b          	addiw	a1,a1,222
   10cf8:	058e                	slli	a1,a1,0x3
   10cfa:	06e6861b          	addiw	a2,a3,110
   10cfe:	b785                	j	10c5e <_free_r+0x118>
   10d00:	0017e693          	ori	a3,a5,1
   10d04:	e714                	sd	a3,8(a4)
   10d06:	e21c                	sd	a5,0(a2)
   10d08:	bdc5                	j	10bf8 <_free_r+0xb2>
   10d0a:	00169593          	slli	a1,a3,0x1
   10d0e:	0b85859b          	addiw	a1,a1,184
   10d12:	058e                	slli	a1,a1,0x3
   10d14:	05b6861b          	addiw	a2,a3,91
   10d18:	b799                	j	10c5e <_free_r+0x118>
   10d1a:	02e8b423          	sd	a4,40(a7)
   10d1e:	02e8b023          	sd	a4,32(a7)
   10d22:	ef08                	sd	a0,24(a4)
   10d24:	eb08                	sd	a0,16(a4)
   10d26:	01073423          	sd	a6,8(a4)
   10d2a:	e19c                	sd	a5,0(a1)
   10d2c:	b5f1                	j	10bf8 <_free_r+0xb2>
   10d2e:	0088b503          	ld	a0,8(a7)
   10d32:	4026561b          	sraiw	a2,a2,0x2
   10d36:	4785                	li	a5,1
   10d38:	00c797b3          	sll	a5,a5,a2
   10d3c:	8fc9                	or	a5,a5,a0
   10d3e:	00f8b423          	sd	a5,8(a7)
   10d42:	bf25                	j	10c7a <_free_r+0x134>
   10d44:	15400613          	li	a2,340
   10d48:	00d66c63          	bltu	a2,a3,10d60 <_free_r+0x21a>
   10d4c:	00f7d693          	srli	a3,a5,0xf
   10d50:	00169593          	slli	a1,a3,0x1
   10d54:	0f05859b          	addiw	a1,a1,240
   10d58:	058e                	slli	a1,a1,0x3
   10d5a:	0776861b          	addiw	a2,a3,119
   10d5e:	b701                	j	10c5e <_free_r+0x118>
   10d60:	55400613          	li	a2,1364
   10d64:	00d66c63          	bltu	a2,a3,10d7c <_free_r+0x236>
   10d68:	0127d693          	srli	a3,a5,0x12
   10d6c:	00169593          	slli	a1,a3,0x1
   10d70:	0fa5859b          	addiw	a1,a1,250
   10d74:	058e                	slli	a1,a1,0x3
   10d76:	07c6861b          	addiw	a2,a3,124
   10d7a:	b5d5                	j	10c5e <_free_r+0x118>
   10d7c:	7f000593          	li	a1,2032
   10d80:	07e00613          	li	a2,126
   10d84:	bde9                	j	10c5e <_free_r+0x118>

0000000000010d86 <_malloc_r>:
   10d86:	711d                	addi	sp,sp,-96
   10d88:	e8a2                	sd	s0,80(sp)
   10d8a:	ec86                	sd	ra,88(sp)
   10d8c:	01758713          	addi	a4,a1,23
   10d90:	02e00793          	li	a5,46
   10d94:	842a                	mv	s0,a0
   10d96:	06e7e463          	bltu	a5,a4,10dfe <_malloc_r+0x78>
   10d9a:	02000713          	li	a4,32
   10d9e:	04b76963          	bltu	a4,a1,10df0 <_malloc_r+0x6a>
   10da2:	660000ef          	jal	11402 <__malloc_lock>
   10da6:	02000713          	li	a4,32
   10daa:	05000693          	li	a3,80
   10dae:	4891                	li	a7,4
   10db0:	00014817          	auipc	a6,0x14
   10db4:	c4080813          	addi	a6,a6,-960 # 249f0 <__malloc_av_>
   10db8:	96c2                	add	a3,a3,a6
   10dba:	669c                	ld	a5,8(a3)
   10dbc:	ff068613          	addi	a2,a3,-16
   10dc0:	32c78a63          	beq	a5,a2,110f4 <_malloc_r+0x36e>
   10dc4:	6798                	ld	a4,8(a5)
   10dc6:	6f90                	ld	a2,24(a5)
   10dc8:	6b8c                	ld	a1,16(a5)
   10dca:	9b71                	andi	a4,a4,-4
   10dcc:	973e                	add	a4,a4,a5
   10dce:	6714                	ld	a3,8(a4)
   10dd0:	ed90                	sd	a2,24(a1)
   10dd2:	ea0c                	sd	a1,16(a2)
   10dd4:	0016e693          	ori	a3,a3,1
   10dd8:	8522                	mv	a0,s0
   10dda:	e714                	sd	a3,8(a4)
   10ddc:	e43e                	sd	a5,8(sp)
   10dde:	626000ef          	jal	11404 <__malloc_unlock>
   10de2:	67a2                	ld	a5,8(sp)
   10de4:	60e6                	ld	ra,88(sp)
   10de6:	6446                	ld	s0,80(sp)
   10de8:	01078513          	addi	a0,a5,16
   10dec:	6125                	addi	sp,sp,96
   10dee:	8082                	ret
   10df0:	47b1                	li	a5,12
   10df2:	c01c                	sw	a5,0(s0)
   10df4:	4501                	li	a0,0
   10df6:	60e6                	ld	ra,88(sp)
   10df8:	6446                	ld	s0,80(sp)
   10dfa:	6125                	addi	sp,sp,96
   10dfc:	8082                	ret
   10dfe:	4785                	li	a5,1
   10e00:	9b41                	andi	a4,a4,-16
   10e02:	07fe                	slli	a5,a5,0x1f
   10e04:	fef776e3          	bgeu	a4,a5,10df0 <_malloc_r+0x6a>
   10e08:	feb764e3          	bltu	a4,a1,10df0 <_malloc_r+0x6a>
   10e0c:	e43a                	sd	a4,8(sp)
   10e0e:	5f4000ef          	jal	11402 <__malloc_lock>
   10e12:	6722                	ld	a4,8(sp)
   10e14:	1f700793          	li	a5,503
   10e18:	38e7fc63          	bgeu	a5,a4,111b0 <_malloc_r+0x42a>
   10e1c:	00975793          	srli	a5,a4,0x9
   10e20:	12078663          	beqz	a5,10f4c <_malloc_r+0x1c6>
   10e24:	4691                	li	a3,4
   10e26:	30f6ee63          	bltu	a3,a5,11142 <_malloc_r+0x3bc>
   10e2a:	00675793          	srli	a5,a4,0x6
   10e2e:	0397889b          	addiw	a7,a5,57
   10e32:	0018951b          	slliw	a0,a7,0x1
   10e36:	03878e1b          	addiw	t3,a5,56
   10e3a:	050e                	slli	a0,a0,0x3
   10e3c:	00014817          	auipc	a6,0x14
   10e40:	bb480813          	addi	a6,a6,-1100 # 249f0 <__malloc_av_>
   10e44:	9542                	add	a0,a0,a6
   10e46:	651c                	ld	a5,8(a0)
   10e48:	1541                	addi	a0,a0,-16
   10e4a:	02f50163          	beq	a0,a5,10e6c <_malloc_r+0xe6>
   10e4e:	437d                	li	t1,31
   10e50:	a039                	j	10e5e <_malloc_r+0xd8>
   10e52:	6f8c                	ld	a1,24(a5)
   10e54:	26065d63          	bgez	a2,110ce <_malloc_r+0x348>
   10e58:	00b50a63          	beq	a0,a1,10e6c <_malloc_r+0xe6>
   10e5c:	87ae                	mv	a5,a1
   10e5e:	6794                	ld	a3,8(a5)
   10e60:	9af1                	andi	a3,a3,-4
   10e62:	40e68633          	sub	a2,a3,a4
   10e66:	fec356e3          	bge	t1,a2,10e52 <_malloc_r+0xcc>
   10e6a:	88f2                	mv	a7,t3
   10e6c:	02083783          	ld	a5,32(a6)
   10e70:	00014e97          	auipc	t4,0x14
   10e74:	b90e8e93          	addi	t4,t4,-1136 # 24a00 <__malloc_av_+0x10>
   10e78:	23d78463          	beq	a5,t4,110a0 <_malloc_r+0x31a>
   10e7c:	0087b303          	ld	t1,8(a5)
   10e80:	467d                	li	a2,31
   10e82:	ffc37313          	andi	t1,t1,-4
   10e86:	40e306b3          	sub	a3,t1,a4
   10e8a:	34d64a63          	blt	a2,a3,111de <_malloc_r+0x458>
   10e8e:	03d83423          	sd	t4,40(a6)
   10e92:	03d83023          	sd	t4,32(a6)
   10e96:	3206d563          	bgez	a3,111c0 <_malloc_r+0x43a>
   10e9a:	1ff00693          	li	a3,511
   10e9e:	00883583          	ld	a1,8(a6)
   10ea2:	2466ee63          	bltu	a3,t1,110fe <_malloc_r+0x378>
   10ea6:	00335313          	srli	t1,t1,0x3
   10eaa:	00131693          	slli	a3,t1,0x1
   10eae:	2689                	addiw	a3,a3,2
   10eb0:	068e                	slli	a3,a3,0x3
   10eb2:	96c2                	add	a3,a3,a6
   10eb4:	6288                	ld	a0,0(a3)
   10eb6:	4023531b          	sraiw	t1,t1,0x2
   10eba:	4605                	li	a2,1
   10ebc:	00661633          	sll	a2,a2,t1
   10ec0:	8dd1                	or	a1,a1,a2
   10ec2:	ff068613          	addi	a2,a3,-16
   10ec6:	eb88                	sd	a0,16(a5)
   10ec8:	ef90                	sd	a2,24(a5)
   10eca:	00b83423          	sd	a1,8(a6)
   10ece:	e29c                	sd	a5,0(a3)
   10ed0:	ed1c                	sd	a5,24(a0)
   10ed2:	4028d79b          	sraiw	a5,a7,0x2
   10ed6:	4505                	li	a0,1
   10ed8:	00f51533          	sll	a0,a0,a5
   10edc:	06a5ef63          	bltu	a1,a0,10f5a <_malloc_r+0x1d4>
   10ee0:	00b577b3          	and	a5,a0,a1
   10ee4:	ef89                	bnez	a5,10efe <_malloc_r+0x178>
   10ee6:	0506                	slli	a0,a0,0x1
   10ee8:	ffc8f893          	andi	a7,a7,-4
   10eec:	00b577b3          	and	a5,a0,a1
   10ef0:	2891                	addiw	a7,a7,4
   10ef2:	e791                	bnez	a5,10efe <_malloc_r+0x178>
   10ef4:	0506                	slli	a0,a0,0x1
   10ef6:	00b577b3          	and	a5,a0,a1
   10efa:	2891                	addiw	a7,a7,4
   10efc:	dfe5                	beqz	a5,10ef4 <_malloc_r+0x16e>
   10efe:	4e7d                	li	t3,31
   10f00:	00189f13          	slli	t5,a7,0x1
   10f04:	2f09                	addiw	t5,t5,2
   10f06:	0f0e                	slli	t5,t5,0x3
   10f08:	1f41                	addi	t5,t5,-16
   10f0a:	9f42                	add	t5,t5,a6
   10f0c:	837a                	mv	t1,t5
   10f0e:	01833683          	ld	a3,24(t1)
   10f12:	8fc6                	mv	t6,a7
   10f14:	24d30863          	beq	t1,a3,11164 <_malloc_r+0x3de>
   10f18:	6690                	ld	a2,8(a3)
   10f1a:	87b6                	mv	a5,a3
   10f1c:	6e94                	ld	a3,24(a3)
   10f1e:	9a71                	andi	a2,a2,-4
   10f20:	40e605b3          	sub	a1,a2,a4
   10f24:	24be4963          	blt	t3,a1,11176 <_malloc_r+0x3f0>
   10f28:	fe05c6e3          	bltz	a1,10f14 <_malloc_r+0x18e>
   10f2c:	963e                	add	a2,a2,a5
   10f2e:	6618                	ld	a4,8(a2)
   10f30:	6b8c                	ld	a1,16(a5)
   10f32:	8522                	mv	a0,s0
   10f34:	00176713          	ori	a4,a4,1
   10f38:	e618                	sd	a4,8(a2)
   10f3a:	ed94                	sd	a3,24(a1)
   10f3c:	ea8c                	sd	a1,16(a3)
   10f3e:	e43e                	sd	a5,8(sp)
   10f40:	4c4000ef          	jal	11404 <__malloc_unlock>
   10f44:	67a2                	ld	a5,8(sp)
   10f46:	01078513          	addi	a0,a5,16
   10f4a:	b575                	j	10df6 <_malloc_r+0x70>
   10f4c:	40000513          	li	a0,1024
   10f50:	04000893          	li	a7,64
   10f54:	03f00e13          	li	t3,63
   10f58:	b5d5                	j	10e3c <_malloc_r+0xb6>
   10f5a:	01083783          	ld	a5,16(a6)
   10f5e:	6794                	ld	a3,8(a5)
   10f60:	ffc6f893          	andi	a7,a3,-4
   10f64:	40e88633          	sub	a2,a7,a4
   10f68:	00e8e663          	bltu	a7,a4,10f74 <_malloc_r+0x1ee>
   10f6c:	02062693          	slti	a3,a2,32
   10f70:	12068b63          	beqz	a3,110a6 <_malloc_r+0x320>
   10f74:	2601b583          	ld	a1,608(gp) # 254d8 <__malloc_top_pad>
   10f78:	2201b603          	ld	a2,544(gp) # 25498 <__malloc_sbrk_base>
   10f7c:	56fd                	li	a3,-1
   10f7e:	95ba                	add	a1,a1,a4
   10f80:	30d60c63          	beq	a2,a3,11298 <_malloc_r+0x512>
   10f84:	6685                	lui	a3,0x1
   10f86:	06fd                	addi	a3,a3,31 # 101f <exit-0xf101>
   10f88:	95b6                	add	a1,a1,a3
   10f8a:	76fd                	lui	a3,0xfffff
   10f8c:	8df5                	and	a1,a1,a3
   10f8e:	8522                	mv	a0,s0
   10f90:	f442                	sd	a6,40(sp)
   10f92:	f03e                	sd	a5,32(sp)
   10f94:	ec3a                	sd	a4,24(sp)
   10f96:	e846                	sd	a7,16(sp)
   10f98:	e42e                	sd	a1,8(sp)
   10f9a:	459050ef          	jal	16bf2 <_sbrk_r>
   10f9e:	56fd                	li	a3,-1
   10fa0:	65a2                	ld	a1,8(sp)
   10fa2:	68c2                	ld	a7,16(sp)
   10fa4:	6762                	ld	a4,24(sp)
   10fa6:	7782                	ld	a5,32(sp)
   10fa8:	7822                	ld	a6,40(sp)
   10faa:	832a                	mv	t1,a0
   10fac:	22018e93          	addi	t4,gp,544 # 25498 <__malloc_sbrk_base>
   10fb0:	26d50d63          	beq	a0,a3,1122a <_malloc_r+0x4a4>
   10fb4:	011786b3          	add	a3,a5,a7
   10fb8:	26d56763          	bltu	a0,a3,11226 <_malloc_r+0x4a0>
   10fbc:	4c01a603          	lw	a2,1216(gp) # 25738 <__malloc_current_mallinfo>
   10fc0:	4c018e13          	addi	t3,gp,1216 # 25738 <__malloc_current_mallinfo>
   10fc4:	9e2d                	addw	a2,a2,a1
   10fc6:	00ce2023          	sw	a2,0(t3)
   10fca:	8532                	mv	a0,a2
   10fcc:	36668563          	beq	a3,t1,11336 <_malloc_r+0x5b0>
   10fd0:	000ebf03          	ld	t5,0(t4)
   10fd4:	567d                	li	a2,-1
   10fd6:	36cf0c63          	beq	t5,a2,1134e <_malloc_r+0x5c8>
   10fda:	40d306b3          	sub	a3,t1,a3
   10fde:	9ea9                	addw	a3,a3,a0
   10fe0:	00de2023          	sw	a3,0(t3)
   10fe4:	00f37e93          	andi	t4,t1,15
   10fe8:	2c0e8463          	beqz	t4,112b0 <_malloc_r+0x52a>
   10fec:	ff037313          	andi	t1,t1,-16
   10ff0:	6685                	lui	a3,0x1
   10ff2:	0341                	addi	t1,t1,16
   10ff4:	06c1                	addi	a3,a3,16 # 1010 <exit-0xf110>
   10ff6:	00b30633          	add	a2,t1,a1
   10ffa:	41d685b3          	sub	a1,a3,t4
   10ffe:	8d91                	sub	a1,a1,a2
   11000:	15d2                	slli	a1,a1,0x34
   11002:	91d1                	srli	a1,a1,0x34
   11004:	8522                	mv	a0,s0
   11006:	e0c2                	sd	a6,64(sp)
   11008:	fc72                	sd	t3,56(sp)
   1100a:	f83e                	sd	a5,48(sp)
   1100c:	f43a                	sd	a4,40(sp)
   1100e:	f046                	sd	a7,32(sp)
   11010:	ec1a                	sd	t1,24(sp)
   11012:	e876                	sd	t4,16(sp)
   11014:	e432                	sd	a2,8(sp)
   11016:	e4ae                	sd	a1,72(sp)
   11018:	3db050ef          	jal	16bf2 <_sbrk_r>
   1101c:	86aa                	mv	a3,a0
   1101e:	557d                	li	a0,-1
   11020:	6622                	ld	a2,8(sp)
   11022:	6ec2                	ld	t4,16(sp)
   11024:	6362                	ld	t1,24(sp)
   11026:	7882                	ld	a7,32(sp)
   11028:	7722                	ld	a4,40(sp)
   1102a:	77c2                	ld	a5,48(sp)
   1102c:	7e62                	ld	t3,56(sp)
   1102e:	6806                	ld	a6,64(sp)
   11030:	36a68263          	beq	a3,a0,11394 <_malloc_r+0x60e>
   11034:	65a6                	ld	a1,72(sp)
   11036:	0005851b          	sext.w	a0,a1
   1103a:	4c01a603          	lw	a2,1216(gp) # 25738 <__malloc_current_mallinfo>
   1103e:	406686b3          	sub	a3,a3,t1
   11042:	96ae                	add	a3,a3,a1
   11044:	0016e693          	ori	a3,a3,1
   11048:	00683823          	sd	t1,16(a6)
   1104c:	9e29                	addw	a2,a2,a0
   1104e:	00d33423          	sd	a3,8(t1)
   11052:	00ce2023          	sw	a2,0(t3)
   11056:	03078763          	beq	a5,a6,11084 <_malloc_r+0x2fe>
   1105a:	457d                	li	a0,31
   1105c:	2f157c63          	bgeu	a0,a7,11354 <_malloc_r+0x5ce>
   11060:	678c                	ld	a1,8(a5)
   11062:	fe888693          	addi	a3,a7,-24
   11066:	9ac1                	andi	a3,a3,-16
   11068:	8985                	andi	a1,a1,1
   1106a:	8dd5                	or	a1,a1,a3
   1106c:	e78c                	sd	a1,8(a5)
   1106e:	48a5                	li	a7,9
   11070:	00d785b3          	add	a1,a5,a3
   11074:	0115b423          	sd	a7,8(a1)
   11078:	0115b823          	sd	a7,16(a1)
   1107c:	32d56663          	bltu	a0,a3,113a8 <_malloc_r+0x622>
   11080:	00833683          	ld	a3,8(t1)
   11084:	2581b783          	ld	a5,600(gp) # 254d0 <__malloc_max_sbrked_mem>
   11088:	00c7f463          	bgeu	a5,a2,11090 <_malloc_r+0x30a>
   1108c:	24c1bc23          	sd	a2,600(gp) # 254d0 <__malloc_max_sbrked_mem>
   11090:	2501b783          	ld	a5,592(gp) # 254c8 <__malloc_max_total_mem>
   11094:	00c7f463          	bgeu	a5,a2,1109c <_malloc_r+0x316>
   11098:	24c1b823          	sd	a2,592(gp) # 254c8 <__malloc_max_total_mem>
   1109c:	879a                	mv	a5,t1
   1109e:	aa49                	j	11230 <_malloc_r+0x4aa>
   110a0:	00883583          	ld	a1,8(a6)
   110a4:	b53d                	j	10ed2 <_malloc_r+0x14c>
   110a6:	00176693          	ori	a3,a4,1
   110aa:	e794                	sd	a3,8(a5)
   110ac:	973e                	add	a4,a4,a5
   110ae:	00166613          	ori	a2,a2,1
   110b2:	00e83823          	sd	a4,16(a6)
   110b6:	8522                	mv	a0,s0
   110b8:	e710                	sd	a2,8(a4)
   110ba:	e43e                	sd	a5,8(sp)
   110bc:	348000ef          	jal	11404 <__malloc_unlock>
   110c0:	67a2                	ld	a5,8(sp)
   110c2:	60e6                	ld	ra,88(sp)
   110c4:	6446                	ld	s0,80(sp)
   110c6:	01078513          	addi	a0,a5,16
   110ca:	6125                	addi	sp,sp,96
   110cc:	8082                	ret
   110ce:	6b90                	ld	a2,16(a5)
   110d0:	96be                	add	a3,a3,a5
   110d2:	6698                	ld	a4,8(a3)
   110d4:	ee0c                	sd	a1,24(a2)
   110d6:	e990                	sd	a2,16(a1)
   110d8:	00176713          	ori	a4,a4,1
   110dc:	8522                	mv	a0,s0
   110de:	e698                	sd	a4,8(a3)
   110e0:	e43e                	sd	a5,8(sp)
   110e2:	322000ef          	jal	11404 <__malloc_unlock>
   110e6:	67a2                	ld	a5,8(sp)
   110e8:	60e6                	ld	ra,88(sp)
   110ea:	6446                	ld	s0,80(sp)
   110ec:	01078513          	addi	a0,a5,16
   110f0:	6125                	addi	sp,sp,96
   110f2:	8082                	ret
   110f4:	6e9c                	ld	a5,24(a3)
   110f6:	2889                	addiw	a7,a7,2
   110f8:	d6f68ae3          	beq	a3,a5,10e6c <_malloc_r+0xe6>
   110fc:	b1e1                	j	10dc4 <_malloc_r+0x3e>
   110fe:	00935693          	srli	a3,t1,0x9
   11102:	4611                	li	a2,4
   11104:	10d67763          	bgeu	a2,a3,11212 <_malloc_r+0x48c>
   11108:	4651                	li	a2,20
   1110a:	1ed66263          	bltu	a2,a3,112ee <_malloc_r+0x568>
   1110e:	00169513          	slli	a0,a3,0x1
   11112:	0b85051b          	addiw	a0,a0,184
   11116:	050e                	slli	a0,a0,0x3
   11118:	05b6861b          	addiw	a2,a3,91
   1111c:	9542                	add	a0,a0,a6
   1111e:	6114                	ld	a3,0(a0)
   11120:	1541                	addi	a0,a0,-16
   11122:	00d51663          	bne	a0,a3,1112e <_malloc_r+0x3a8>
   11126:	aaa5                	j	1129e <_malloc_r+0x518>
   11128:	6a94                	ld	a3,16(a3)
   1112a:	00d50663          	beq	a0,a3,11136 <_malloc_r+0x3b0>
   1112e:	6690                	ld	a2,8(a3)
   11130:	9a71                	andi	a2,a2,-4
   11132:	fec36be3          	bltu	t1,a2,11128 <_malloc_r+0x3a2>
   11136:	6e88                	ld	a0,24(a3)
   11138:	ef88                	sd	a0,24(a5)
   1113a:	eb94                	sd	a3,16(a5)
   1113c:	e91c                	sd	a5,16(a0)
   1113e:	ee9c                	sd	a5,24(a3)
   11140:	bb49                	j	10ed2 <_malloc_r+0x14c>
   11142:	46d1                	li	a3,20
   11144:	10f6f363          	bgeu	a3,a5,1124a <_malloc_r+0x4c4>
   11148:	05400693          	li	a3,84
   1114c:	1af6ef63          	bltu	a3,a5,1130a <_malloc_r+0x584>
   11150:	00c75793          	srli	a5,a4,0xc
   11154:	06f7889b          	addiw	a7,a5,111
   11158:	0018951b          	slliw	a0,a7,0x1
   1115c:	06e78e1b          	addiw	t3,a5,110
   11160:	050e                	slli	a0,a0,0x3
   11162:	b9e9                	j	10e3c <_malloc_r+0xb6>
   11164:	2f85                	addiw	t6,t6,1
   11166:	003ff793          	andi	a5,t6,3
   1116a:	0341                	addi	t1,t1,16
   1116c:	0e078c63          	beqz	a5,11264 <_malloc_r+0x4de>
   11170:	01833683          	ld	a3,24(t1)
   11174:	b345                	j	10f14 <_malloc_r+0x18e>
   11176:	6b88                	ld	a0,16(a5)
   11178:	00176893          	ori	a7,a4,1
   1117c:	0117b423          	sd	a7,8(a5)
   11180:	ed14                	sd	a3,24(a0)
   11182:	ea88                	sd	a0,16(a3)
   11184:	973e                	add	a4,a4,a5
   11186:	02e83423          	sd	a4,40(a6)
   1118a:	02e83023          	sd	a4,32(a6)
   1118e:	0015e693          	ori	a3,a1,1
   11192:	963e                	add	a2,a2,a5
   11194:	01d73c23          	sd	t4,24(a4)
   11198:	01d73823          	sd	t4,16(a4)
   1119c:	e714                	sd	a3,8(a4)
   1119e:	8522                	mv	a0,s0
   111a0:	e20c                	sd	a1,0(a2)
   111a2:	e43e                	sd	a5,8(sp)
   111a4:	260000ef          	jal	11404 <__malloc_unlock>
   111a8:	67a2                	ld	a5,8(sp)
   111aa:	01078513          	addi	a0,a5,16
   111ae:	b1a1                	j	10df6 <_malloc_r+0x70>
   111b0:	00375893          	srli	a7,a4,0x3
   111b4:	00189693          	slli	a3,a7,0x1
   111b8:	2689                	addiw	a3,a3,2
   111ba:	068e                	slli	a3,a3,0x3
   111bc:	2881                	sext.w	a7,a7
   111be:	becd                	j	10db0 <_malloc_r+0x2a>
   111c0:	933e                	add	t1,t1,a5
   111c2:	00833703          	ld	a4,8(t1)
   111c6:	8522                	mv	a0,s0
   111c8:	e43e                	sd	a5,8(sp)
   111ca:	00176713          	ori	a4,a4,1
   111ce:	00e33423          	sd	a4,8(t1)
   111d2:	232000ef          	jal	11404 <__malloc_unlock>
   111d6:	67a2                	ld	a5,8(sp)
   111d8:	01078513          	addi	a0,a5,16
   111dc:	b929                	j	10df6 <_malloc_r+0x70>
   111de:	00176613          	ori	a2,a4,1
   111e2:	e790                	sd	a2,8(a5)
   111e4:	973e                	add	a4,a4,a5
   111e6:	02e83423          	sd	a4,40(a6)
   111ea:	02e83023          	sd	a4,32(a6)
   111ee:	0016e613          	ori	a2,a3,1
   111f2:	933e                	add	t1,t1,a5
   111f4:	01d73c23          	sd	t4,24(a4)
   111f8:	01d73823          	sd	t4,16(a4)
   111fc:	e710                	sd	a2,8(a4)
   111fe:	8522                	mv	a0,s0
   11200:	00d33023          	sd	a3,0(t1)
   11204:	e43e                	sd	a5,8(sp)
   11206:	1fe000ef          	jal	11404 <__malloc_unlock>
   1120a:	67a2                	ld	a5,8(sp)
   1120c:	01078513          	addi	a0,a5,16
   11210:	b6dd                	j	10df6 <_malloc_r+0x70>
   11212:	00635693          	srli	a3,t1,0x6
   11216:	00169513          	slli	a0,a3,0x1
   1121a:	0725051b          	addiw	a0,a0,114
   1121e:	050e                	slli	a0,a0,0x3
   11220:	0386861b          	addiw	a2,a3,56
   11224:	bde5                	j	1111c <_malloc_r+0x396>
   11226:	11078063          	beq	a5,a6,11326 <_malloc_r+0x5a0>
   1122a:	01083783          	ld	a5,16(a6)
   1122e:	6794                	ld	a3,8(a5)
   11230:	9af1                	andi	a3,a3,-4
   11232:	40e68633          	sub	a2,a3,a4
   11236:	00e6e663          	bltu	a3,a4,11242 <_malloc_r+0x4bc>
   1123a:	02062693          	slti	a3,a2,32
   1123e:	e60684e3          	beqz	a3,110a6 <_malloc_r+0x320>
   11242:	8522                	mv	a0,s0
   11244:	1c0000ef          	jal	11404 <__malloc_unlock>
   11248:	b675                	j	10df4 <_malloc_r+0x6e>
   1124a:	05c7889b          	addiw	a7,a5,92
   1124e:	0018951b          	slliw	a0,a7,0x1
   11252:	05b78e1b          	addiw	t3,a5,91
   11256:	050e                	slli	a0,a0,0x3
   11258:	b6d5                	j	10e3c <_malloc_r+0xb6>
   1125a:	010f3783          	ld	a5,16(t5)
   1125e:	38fd                	addiw	a7,a7,-1
   11260:	19e79e63          	bne	a5,t5,113fc <_malloc_r+0x676>
   11264:	0038f793          	andi	a5,a7,3
   11268:	1f41                	addi	t5,t5,-16
   1126a:	fbe5                	bnez	a5,1125a <_malloc_r+0x4d4>
   1126c:	00883683          	ld	a3,8(a6)
   11270:	fff54793          	not	a5,a0
   11274:	8ff5                	and	a5,a5,a3
   11276:	00f83423          	sd	a5,8(a6)
   1127a:	0506                	slli	a0,a0,0x1
   1127c:	fff50693          	addi	a3,a0,-1
   11280:	ccf6fde3          	bgeu	a3,a5,10f5a <_malloc_r+0x1d4>
   11284:	00f576b3          	and	a3,a0,a5
   11288:	e691                	bnez	a3,11294 <_malloc_r+0x50e>
   1128a:	0506                	slli	a0,a0,0x1
   1128c:	00f576b3          	and	a3,a0,a5
   11290:	2f91                	addiw	t6,t6,4
   11292:	dee5                	beqz	a3,1128a <_malloc_r+0x504>
   11294:	88fe                	mv	a7,t6
   11296:	b1ad                	j	10f00 <_malloc_r+0x17a>
   11298:	02058593          	addi	a1,a1,32
   1129c:	b9cd                	j	10f8e <_malloc_r+0x208>
   1129e:	4026561b          	sraiw	a2,a2,0x2
   112a2:	4305                	li	t1,1
   112a4:	00c31633          	sll	a2,t1,a2
   112a8:	8dd1                	or	a1,a1,a2
   112aa:	00b83423          	sd	a1,8(a6)
   112ae:	b569                	j	11138 <_malloc_r+0x3b2>
   112b0:	00b30633          	add	a2,t1,a1
   112b4:	40c005b3          	neg	a1,a2
   112b8:	15d2                	slli	a1,a1,0x34
   112ba:	91d1                	srli	a1,a1,0x34
   112bc:	8522                	mv	a0,s0
   112be:	fc42                	sd	a6,56(sp)
   112c0:	f872                	sd	t3,48(sp)
   112c2:	f43e                	sd	a5,40(sp)
   112c4:	f03a                	sd	a4,32(sp)
   112c6:	ec46                	sd	a7,24(sp)
   112c8:	e81a                	sd	t1,16(sp)
   112ca:	e432                	sd	a2,8(sp)
   112cc:	e0ae                	sd	a1,64(sp)
   112ce:	125050ef          	jal	16bf2 <_sbrk_r>
   112d2:	86aa                	mv	a3,a0
   112d4:	557d                	li	a0,-1
   112d6:	6342                	ld	t1,16(sp)
   112d8:	68e2                	ld	a7,24(sp)
   112da:	7702                	ld	a4,32(sp)
   112dc:	77a2                	ld	a5,40(sp)
   112de:	7e42                	ld	t3,48(sp)
   112e0:	7862                	ld	a6,56(sp)
   112e2:	0aa68f63          	beq	a3,a0,113a0 <_malloc_r+0x61a>
   112e6:	6586                	ld	a1,64(sp)
   112e8:	0005851b          	sext.w	a0,a1
   112ec:	b3b9                	j	1103a <_malloc_r+0x2b4>
   112ee:	05400613          	li	a2,84
   112f2:	06d66563          	bltu	a2,a3,1135c <_malloc_r+0x5d6>
   112f6:	00c35693          	srli	a3,t1,0xc
   112fa:	00169513          	slli	a0,a3,0x1
   112fe:	0de5051b          	addiw	a0,a0,222
   11302:	050e                	slli	a0,a0,0x3
   11304:	06e6861b          	addiw	a2,a3,110
   11308:	bd11                	j	1111c <_malloc_r+0x396>
   1130a:	15400693          	li	a3,340
   1130e:	06f6e563          	bltu	a3,a5,11378 <_malloc_r+0x5f2>
   11312:	00f75793          	srli	a5,a4,0xf
   11316:	0787889b          	addiw	a7,a5,120
   1131a:	0018951b          	slliw	a0,a7,0x1
   1131e:	07778e1b          	addiw	t3,a5,119
   11322:	050e                	slli	a0,a0,0x3
   11324:	be21                	j	10e3c <_malloc_r+0xb6>
   11326:	4c01a503          	lw	a0,1216(gp) # 25738 <__malloc_current_mallinfo>
   1132a:	4c018e13          	addi	t3,gp,1216 # 25738 <__malloc_current_mallinfo>
   1132e:	9d2d                	addw	a0,a0,a1
   11330:	00ae2023          	sw	a0,0(t3)
   11334:	b971                	j	10fd0 <_malloc_r+0x24a>
   11336:	03431f13          	slli	t5,t1,0x34
   1133a:	c80f1be3          	bnez	t5,10fd0 <_malloc_r+0x24a>
   1133e:	01083303          	ld	t1,16(a6)
   11342:	95c6                	add	a1,a1,a7
   11344:	0015e693          	ori	a3,a1,1
   11348:	00d33423          	sd	a3,8(t1)
   1134c:	bb25                	j	11084 <_malloc_r+0x2fe>
   1134e:	006eb023          	sd	t1,0(t4)
   11352:	b949                	j	10fe4 <_malloc_r+0x25e>
   11354:	4785                	li	a5,1
   11356:	00f33423          	sd	a5,8(t1)
   1135a:	b5e5                	j	11242 <_malloc_r+0x4bc>
   1135c:	15400613          	li	a2,340
   11360:	06d66463          	bltu	a2,a3,113c8 <_malloc_r+0x642>
   11364:	00f35693          	srli	a3,t1,0xf
   11368:	00169513          	slli	a0,a3,0x1
   1136c:	0f05051b          	addiw	a0,a0,240
   11370:	050e                	slli	a0,a0,0x3
   11372:	0776861b          	addiw	a2,a3,119
   11376:	b35d                	j	1111c <_malloc_r+0x396>
   11378:	55400693          	li	a3,1364
   1137c:	06f6e463          	bltu	a3,a5,113e4 <_malloc_r+0x65e>
   11380:	01275793          	srli	a5,a4,0x12
   11384:	07d7889b          	addiw	a7,a5,125
   11388:	0018951b          	slliw	a0,a7,0x1
   1138c:	07c78e1b          	addiw	t3,a5,124
   11390:	050e                	slli	a0,a0,0x3
   11392:	b46d                	j	10e3c <_malloc_r+0xb6>
   11394:	1ec1                	addi	t4,t4,-16
   11396:	01d606b3          	add	a3,a2,t4
   1139a:	4501                	li	a0,0
   1139c:	4581                	li	a1,0
   1139e:	b971                	j	1103a <_malloc_r+0x2b4>
   113a0:	66a2                	ld	a3,8(sp)
   113a2:	4581                	li	a1,0
   113a4:	4501                	li	a0,0
   113a6:	b951                	j	1103a <_malloc_r+0x2b4>
   113a8:	01078593          	addi	a1,a5,16
   113ac:	8522                	mv	a0,s0
   113ae:	e842                	sd	a6,16(sp)
   113b0:	e43a                	sd	a4,8(sp)
   113b2:	f94ff0ef          	jal	10b46 <_free_r>
   113b6:	6842                	ld	a6,16(sp)
   113b8:	4c01a603          	lw	a2,1216(gp) # 25738 <__malloc_current_mallinfo>
   113bc:	6722                	ld	a4,8(sp)
   113be:	01083303          	ld	t1,16(a6)
   113c2:	00833683          	ld	a3,8(t1)
   113c6:	b97d                	j	11084 <_malloc_r+0x2fe>
   113c8:	55400613          	li	a2,1364
   113cc:	02d66363          	bltu	a2,a3,113f2 <_malloc_r+0x66c>
   113d0:	01235693          	srli	a3,t1,0x12
   113d4:	00169513          	slli	a0,a3,0x1
   113d8:	0fa5051b          	addiw	a0,a0,250
   113dc:	050e                	slli	a0,a0,0x3
   113de:	07c6861b          	addiw	a2,a3,124
   113e2:	bb2d                	j	1111c <_malloc_r+0x396>
   113e4:	7f000513          	li	a0,2032
   113e8:	07f00893          	li	a7,127
   113ec:	07e00e13          	li	t3,126
   113f0:	b4b1                	j	10e3c <_malloc_r+0xb6>
   113f2:	7f000513          	li	a0,2032
   113f6:	07e00613          	li	a2,126
   113fa:	b30d                	j	1111c <_malloc_r+0x396>
   113fc:	00883783          	ld	a5,8(a6)
   11400:	bdad                	j	1127a <_malloc_r+0x4f4>

0000000000011402 <__malloc_lock>:
   11402:	8082                	ret

0000000000011404 <__malloc_unlock>:
   11404:	8082                	ret

0000000000011406 <_vfprintf_r>:
   11406:	db010113          	addi	sp,sp,-592
   1140a:	24113423          	sd	ra,584(sp)
   1140e:	24813023          	sd	s0,576(sp)
   11412:	22913c23          	sd	s1,568(sp)
   11416:	21613823          	sd	s6,528(sp)
   1141a:	f036                	sd	a3,32(sp)
   1141c:	8b32                	mv	s6,a2
   1141e:	84ae                	mv	s1,a1
   11420:	842a                	mv	s0,a0
   11422:	e42a                	sd	a0,8(sp)
   11424:	7c2050ef          	jal	16be6 <_localeconv_r>
   11428:	611c                	ld	a5,0(a0)
   1142a:	853e                	mv	a0,a5
   1142c:	e8be                	sd	a5,80(sp)
   1142e:	1fd050ef          	jal	16e2a <strlen>
   11432:	e4aa                	sd	a0,72(sp)
   11434:	e982                	sd	zero,208(sp)
   11436:	ed82                	sd	zero,216(sp)
   11438:	c409                	beqz	s0,11442 <_vfprintf_r+0x3c>
   1143a:	643c                	ld	a5,72(s0)
   1143c:	e399                	bnez	a5,11442 <_vfprintf_r+0x3c>
   1143e:	3d60106f          	j	12814 <_vfprintf_r+0x140e>
   11442:	01049783          	lh	a5,16(s1)
   11446:	0ac4a703          	lw	a4,172(s1)
   1144a:	6609                	lui	a2,0x2
   1144c:	03279693          	slli	a3,a5,0x32
   11450:	2406cf63          	bltz	a3,116ae <_vfprintf_r+0x2a8>
   11454:	76f9                	lui	a3,0xffffe
   11456:	8fd1                	or	a5,a5,a2
   11458:	16fd                	addi	a3,a3,-1 # ffffffffffffdfff <__BSS_END__+0xfffffffffffd8587>
   1145a:	8f75                	and	a4,a4,a3
   1145c:	00f49823          	sh	a5,16(s1)
   11460:	0107979b          	slliw	a5,a5,0x10
   11464:	4107d79b          	sraiw	a5,a5,0x10
   11468:	0ae4a623          	sw	a4,172(s1)
   1146c:	0087f713          	andi	a4,a5,8
   11470:	1e070d63          	beqz	a4,1166a <_vfprintf_r+0x264>
   11474:	6c98                	ld	a4,24(s1)
   11476:	1e070a63          	beqz	a4,1166a <_vfprintf_r+0x264>
   1147a:	8be9                	andi	a5,a5,26
   1147c:	4729                	li	a4,10
   1147e:	20e78163          	beq	a5,a4,11680 <_vfprintf_r+0x27a>
   11482:	23413023          	sd	s4,544(sp)
   11486:	16010a13          	addi	s4,sp,352
   1148a:	23313423          	sd	s3,552(sp)
   1148e:	21713423          	sd	s7,520(sp)
   11492:	ffe6                	sd	s9,504(sp)
   11494:	23213823          	sd	s2,560(sp)
   11498:	21513c23          	sd	s5,536(sp)
   1149c:	21813023          	sd	s8,512(sp)
   114a0:	fbea                	sd	s10,496(sp)
   114a2:	f7ee                	sd	s11,488(sp)
   114a4:	f982                	sd	zero,240(sp)
   114a6:	d582                	sw	zero,232(sp)
   114a8:	f1d2                	sd	s4,224(sp)
   114aa:	8bd2                	mv	s7,s4
   114ac:	f802                	sd	zero,48(sp)
   114ae:	f082                	sd	zero,96(sp)
   114b0:	f882                	sd	zero,112(sp)
   114b2:	e502                	sd	zero,136(sp)
   114b4:	f482                	sd	zero,104(sp)
   114b6:	ec02                	sd	zero,24(sp)
   114b8:	499d                	li	s3,7
   114ba:	4441                	li	s0,16
   114bc:	8cda                	mv	s9,s6
   114be:	e826                	sd	s1,16(sp)
   114c0:	000cc703          	lbu	a4,0(s9)
   114c4:	8966                	mv	s2,s9
   114c6:	fdb70793          	addi	a5,a4,-37
   114ca:	0007069b          	sext.w	a3,a4
   114ce:	c3b9                	beqz	a5,11514 <_vfprintf_r+0x10e>
   114d0:	c2b1                	beqz	a3,11514 <_vfprintf_r+0x10e>
   114d2:	8aca                	mv	s5,s2
   114d4:	00194703          	lbu	a4,1(s2)
   114d8:	0905                	addi	s2,s2,1
   114da:	0007079b          	sext.w	a5,a4
   114de:	c701                	beqz	a4,114e6 <_vfprintf_r+0xe0>
   114e0:	fdb78793          	addi	a5,a5,-37
   114e4:	f7fd                	bnez	a5,114d2 <_vfprintf_r+0xcc>
   114e6:	41990b3b          	subw	s6,s2,s9
   114ea:	020b0563          	beqz	s6,11514 <_vfprintf_r+0x10e>
   114ee:	774e                	ld	a4,240(sp)
   114f0:	57ae                	lw	a5,232(sp)
   114f2:	019bb023          	sd	s9,0(s7)
   114f6:	975a                	add	a4,a4,s6
   114f8:	2785                	addiw	a5,a5,1
   114fa:	016bb423          	sd	s6,8(s7)
   114fe:	f9ba                	sd	a4,240(sp)
   11500:	d5be                	sw	a5,232(sp)
   11502:	0bc1                	addi	s7,s7,16
   11504:	18f9cb63          	blt	s3,a5,1169a <_vfprintf_r+0x294>
   11508:	67e2                	ld	a5,24(sp)
   1150a:	001ac703          	lbu	a4,1(s5)
   1150e:	016787bb          	addw	a5,a5,s6
   11512:	ec3e                	sd	a5,24(sp)
   11514:	e319                	bnez	a4,1151a <_vfprintf_r+0x114>
   11516:	3a00106f          	j	128b6 <_vfprintf_r+0x14b0>
   1151a:	00194303          	lbu	t1,1(s2)
   1151e:	00190c93          	addi	s9,s2,1
   11522:	0a0103a3          	sb	zero,167(sp)
   11526:	5afd                	li	s5,-1
   11528:	4d01                	li	s10,0
   1152a:	05a00913          	li	s2,90
   1152e:	4481                	li	s1,0
   11530:	0c85                	addi	s9,s9,1
   11532:	00030d9b          	sext.w	s11,t1
   11536:	fe0d879b          	addiw	a5,s11,-32
   1153a:	04f96763          	bltu	s2,a5,11588 <_vfprintf_r+0x182>
   1153e:	02079713          	slli	a4,a5,0x20
   11542:	01e75793          	srli	a5,a4,0x1e
   11546:	00011717          	auipc	a4,0x11
   1154a:	33e70713          	addi	a4,a4,830 # 22884 <__clzdi2+0x2e8>
   1154e:	97ba                	add	a5,a5,a4
   11550:	439c                	lw	a5,0(a5)
   11552:	97ba                	add	a5,a5,a4
   11554:	8782                	jr	a5
   11556:	4d01                	li	s10,0
   11558:	46a5                	li	a3,9
   1155a:	002d179b          	slliw	a5,s10,0x2
   1155e:	0c85                	addi	s9,s9,1
   11560:	01a78d3b          	addw	s10,a5,s10
   11564:	fffcc783          	lbu	a5,-1(s9)
   11568:	fd0d8d9b          	addiw	s11,s11,-48
   1156c:	001d1d1b          	slliw	s10,s10,0x1
   11570:	fd07871b          	addiw	a4,a5,-48
   11574:	01ad8d3b          	addw	s10,s11,s10
   11578:	00078d9b          	sext.w	s11,a5
   1157c:	fce6ffe3          	bgeu	a3,a4,1155a <_vfprintf_r+0x154>
   11580:	fe0d879b          	addiw	a5,s11,-32
   11584:	faf97de3          	bgeu	s2,a5,1153e <_vfprintf_r+0x138>
   11588:	8e26                	mv	t3,s1
   1158a:	000d9463          	bnez	s11,11592 <_vfprintf_r+0x18c>
   1158e:	3280106f          	j	128b6 <_vfprintf_r+0x14b0>
   11592:	4885                	li	a7,1
   11594:	0fb10c23          	sb	s11,248(sp)
   11598:	0a0103a3          	sb	zero,167(sp)
   1159c:	8846                	mv	a6,a7
   1159e:	f402                	sd	zero,40(sp)
   115a0:	4a81                	li	s5,0
   115a2:	e082                	sd	zero,64(sp)
   115a4:	fc02                	sd	zero,56(sp)
   115a6:	4b01                	li	s6,0
   115a8:	19bc                	addi	a5,sp,248
   115aa:	794e                	ld	s2,240(sp)
   115ac:	084e7493          	andi	s1,t3,132
   115b0:	85ca                	mv	a1,s2
   115b2:	44048c63          	beqz	s1,11a0a <_vfprintf_r+0x604>
   115b6:	0a714703          	lbu	a4,167(sp)
   115ba:	c329                	beqz	a4,115fc <_vfprintf_r+0x1f6>
   115bc:	552e                	lw	a0,232(sp)
   115be:	4281                	li	t0,0
   115c0:	0a710713          	addi	a4,sp,167
   115c4:	00ebb023          	sd	a4,0(s7)
   115c8:	0905                	addi	s2,s2,1
   115ca:	2505                	addiw	a0,a0,1
   115cc:	4705                	li	a4,1
   115ce:	00ebb423          	sd	a4,8(s7)
   115d2:	f9ca                	sd	s2,240(sp)
   115d4:	d5aa                	sw	a0,232(sp)
   115d6:	0bc1                	addi	s7,s7,16
   115d8:	2ea9cf63          	blt	s3,a0,118d6 <_vfprintf_r+0x4d0>
   115dc:	02028063          	beqz	t0,115fc <_vfprintf_r+0x1f6>
   115e0:	552e                	lw	a0,232(sp)
   115e2:	1138                	addi	a4,sp,168
   115e4:	00ebb023          	sd	a4,0(s7)
   115e8:	0909                	addi	s2,s2,2
   115ea:	2505                	addiw	a0,a0,1
   115ec:	4709                	li	a4,2
   115ee:	00ebb423          	sd	a4,8(s7)
   115f2:	f9ca                	sd	s2,240(sp)
   115f4:	d5aa                	sw	a0,232(sp)
   115f6:	0bc1                	addi	s7,s7,16
   115f8:	34a9cee3          	blt	s3,a0,12154 <_vfprintf_r+0xd4e>
   115fc:	08000713          	li	a4,128
   11600:	16e485e3          	beq	s1,a4,11f6a <_vfprintf_r+0xb64>
   11604:	411a8abb          	subw	s5,s5,a7
   11608:	41504d63          	bgtz	s5,11a22 <_vfprintf_r+0x61c>
   1160c:	100e7713          	andi	a4,t3,256
   11610:	4a071b63          	bnez	a4,11ac6 <_vfprintf_r+0x6c0>
   11614:	00fbb023          	sd	a5,0(s7)
   11618:	57ae                	lw	a5,232(sp)
   1161a:	9946                	add	s2,s2,a7
   1161c:	f9ca                	sd	s2,240(sp)
   1161e:	2785                	addiw	a5,a5,1
   11620:	011bb423          	sd	a7,8(s7)
   11624:	d5be                	sw	a5,232(sp)
   11626:	34f9c663          	blt	s3,a5,11972 <_vfprintf_r+0x56c>
   1162a:	0bc1                	addi	s7,s7,16
   1162c:	004e7f13          	andi	t5,t3,4
   11630:	000f0663          	beqz	t5,1163c <_vfprintf_r+0x236>
   11634:	410d0abb          	subw	s5,s10,a6
   11638:	355041e3          	bgtz	s5,1217a <_vfprintf_r+0xd74>
   1163c:	87ea                	mv	a5,s10
   1163e:	010d5363          	bge	s10,a6,11644 <_vfprintf_r+0x23e>
   11642:	87c2                	mv	a5,a6
   11644:	6762                	ld	a4,24(sp)
   11646:	9fb9                	addw	a5,a5,a4
   11648:	ec3e                	sd	a5,24(sp)
   1164a:	1c091de3          	bnez	s2,12024 <_vfprintf_r+0xc1e>
   1164e:	77a2                	ld	a5,40(sp)
   11650:	d582                	sw	zero,232(sp)
   11652:	c789                	beqz	a5,1165c <_vfprintf_r+0x256>
   11654:	75a2                	ld	a1,40(sp)
   11656:	6522                	ld	a0,8(sp)
   11658:	ceeff0ef          	jal	10b46 <_free_r>
   1165c:	8bd2                	mv	s7,s4
   1165e:	b58d                	j	114c0 <_vfprintf_r+0xba>
   11660:	000cc303          	lbu	t1,0(s9)
   11664:	0104e493          	ori	s1,s1,16
   11668:	b5e1                	j	11530 <_vfprintf_r+0x12a>
   1166a:	6522                	ld	a0,8(sp)
   1166c:	85a6                	mv	a1,s1
   1166e:	2b6050ef          	jal	16924 <__swsetup_r>
   11672:	e131                	bnez	a0,116b6 <_vfprintf_r+0x2b0>
   11674:	01049783          	lh	a5,16(s1)
   11678:	4729                	li	a4,10
   1167a:	8be9                	andi	a5,a5,26
   1167c:	e0e793e3          	bne	a5,a4,11482 <_vfprintf_r+0x7c>
   11680:	01249783          	lh	a5,18(s1)
   11684:	de07cfe3          	bltz	a5,11482 <_vfprintf_r+0x7c>
   11688:	7682                	ld	a3,32(sp)
   1168a:	6522                	ld	a0,8(sp)
   1168c:	865a                	mv	a2,s6
   1168e:	85a6                	mv	a1,s1
   11690:	5d5010ef          	jal	13464 <__sbprintf>
   11694:	ec2a                	sd	a0,24(sp)
   11696:	1d30006f          	j	12068 <_vfprintf_r+0xc62>
   1169a:	65c2                	ld	a1,16(sp)
   1169c:	6522                	ld	a0,8(sp)
   1169e:	1190                	addi	a2,sp,224
   116a0:	66a040ef          	jal	15d0a <__sprint_r>
   116a4:	c119                	beqz	a0,116aa <_vfprintf_r+0x2a4>
   116a6:	3f50106f          	j	1329a <_vfprintf_r+0x1e94>
   116aa:	8bd2                	mv	s7,s4
   116ac:	bdb1                	j	11508 <_vfprintf_r+0x102>
   116ae:	03271693          	slli	a3,a4,0x32
   116b2:	da06dde3          	bgez	a3,1146c <_vfprintf_r+0x66>
   116b6:	57fd                	li	a5,-1
   116b8:	ec3e                	sd	a5,24(sp)
   116ba:	1af0006f          	j	12068 <_vfprintf_r+0xc62>
   116be:	0084f793          	andi	a5,s1,8
   116c2:	8e26                	mv	t3,s1
   116c4:	620792e3          	bnez	a5,124e8 <_vfprintf_r+0x10e2>
   116c8:	f426                	sd	s1,40(sp)
   116ca:	7482                	ld	s1,32(sp)
   116cc:	2088                	fld	fa0,0(s1)
   116ce:	60b100ef          	jal	224d8 <__extenddftf2>
   116d2:	7e22                	ld	t3,40(sp)
   116d4:	00848793          	addi	a5,s1,8
   116d8:	f03e                	sd	a5,32(sp)
   116da:	e9aa                	sd	a0,208(sp)
   116dc:	0988                	addi	a0,sp,208
   116de:	f472                	sd	t3,40(sp)
   116e0:	edae                	sd	a1,216(sp)
   116e2:	34f050ef          	jal	17230 <_ldcheck>
   116e6:	d92a                	sw	a0,176(sp)
   116e8:	4789                	li	a5,2
   116ea:	7e22                	ld	t3,40(sp)
   116ec:	00f51463          	bne	a0,a5,116f4 <_vfprintf_r+0x2ee>
   116f0:	17e0106f          	j	1286e <_vfprintf_r+0x1468>
   116f4:	4785                	li	a5,1
   116f6:	00f51463          	bne	a0,a5,116fe <_vfprintf_r+0x2f8>
   116fa:	2460106f          	j	12940 <_vfprintf_r+0x153a>
   116fe:	fdfdf913          	andi	s2,s11,-33
   11702:	04100793          	li	a5,65
   11706:	00f90463          	beq	s2,a5,1170e <_vfprintf_r+0x308>
   1170a:	26e0106f          	j	12978 <_vfprintf_r+0x1572>
   1170e:	03000793          	li	a5,48
   11712:	0af10423          	sb	a5,168(sp)
   11716:	06100713          	li	a4,97
   1171a:	05800793          	li	a5,88
   1171e:	00ed9463          	bne	s11,a4,11726 <_vfprintf_r+0x320>
   11722:	5b80106f          	j	12cda <_vfprintf_r+0x18d4>
   11726:	0af104a3          	sb	a5,169(sp)
   1172a:	06300793          	li	a5,99
   1172e:	0157d463          	bge	a5,s5,11736 <_vfprintf_r+0x330>
   11732:	5740106f          	j	12ca6 <_vfprintf_r+0x18a0>
   11736:	65ee                	ld	a1,216(sp)
   11738:	654e                	ld	a0,208(sp)
   1173a:	0005d463          	bgez	a1,11742 <_vfprintf_r+0x33c>
   1173e:	2cd0106f          	j	1320a <_vfprintf_r+0x1e04>
   11742:	ec82                	sd	zero,88(sp)
   11744:	f402                	sd	zero,40(sp)
   11746:	19bc                	addi	a5,sp,248
   11748:	f83e                	sd	a5,48(sp)
   1174a:	1910                	addi	a2,sp,176
   1174c:	002e6793          	ori	a5,t3,2
   11750:	fc3e                	sd	a5,56(sp)
   11752:	067050ef          	jal	16fb8 <frexpl>
   11756:	00011717          	auipc	a4,0x11
   1175a:	2ba70713          	addi	a4,a4,698 # 22a10 <blanks.1+0x10>
   1175e:	6310                	ld	a2,0(a4)
   11760:	6714                	ld	a3,8(a4)
   11762:	6230f0ef          	jal	21584 <__multf3>
   11766:	4601                	li	a2,0
   11768:	4681                	li	a3,0
   1176a:	8b2a                	mv	s6,a0
   1176c:	892e                	mv	s2,a1
   1176e:	4030f0ef          	jal	21370 <__eqtf2>
   11772:	77c2                	ld	a5,48(sp)
   11774:	e119                	bnez	a0,1177a <_vfprintf_r+0x374>
   11776:	4705                	li	a4,1
   11778:	d93a                	sw	a4,176(sp)
   1177a:	00011697          	auipc	a3,0x11
   1177e:	e9e68693          	addi	a3,a3,-354 # 22618 <__clzdi2+0x7c>
   11782:	06100713          	li	a4,97
   11786:	f0b6                	sd	a3,96(sp)
   11788:	00ed9763          	bne	s11,a4,11796 <_vfprintf_r+0x390>
   1178c:	00011717          	auipc	a4,0x11
   11790:	e7470713          	addi	a4,a4,-396 # 22600 <__clzdi2+0x64>
   11794:	f0ba                	sd	a4,96(sp)
   11796:	00011717          	auipc	a4,0x11
   1179a:	28a70713          	addi	a4,a4,650 # 22a20 <blanks.1+0x20>
   1179e:	6314                	ld	a3,0(a4)
   117a0:	6718                	ld	a4,8(a4)
   117a2:	fcde                	sd	s7,120(sp)
   117a4:	e166                	sd	s9,128(sp)
   117a6:	7b86                	ld	s7,96(sp)
   117a8:	f836                	sd	a3,48(sp)
   117aa:	e0ba                	sd	a4,64(sp)
   117ac:	84be                	mv	s1,a5
   117ae:	8cbe                	mv	s9,a5
   117b0:	a809                	j	117c2 <_vfprintf_r+0x3bc>
   117b2:	4601                	li	a2,0
   117b4:	4681                	li	a3,0
   117b6:	3bb0f0ef          	jal	21370 <__eqtf2>
   117ba:	e119                	bnez	a0,117c0 <_vfprintf_r+0x3ba>
   117bc:	3590106f          	j	13314 <_vfprintf_r+0x1f0e>
   117c0:	3afd                	addiw	s5,s5,-1
   117c2:	7642                	ld	a2,48(sp)
   117c4:	6686                	ld	a3,64(sp)
   117c6:	855a                	mv	a0,s6
   117c8:	85ca                	mv	a1,s2
   117ca:	5bb0f0ef          	jal	21584 <__multf3>
   117ce:	892e                	mv	s2,a1
   117d0:	8b2a                	mv	s6,a0
   117d2:	427100ef          	jal	223f8 <__fixtfsi>
   117d6:	00050c1b          	sext.w	s8,a0
   117da:	8562                	mv	a0,s8
   117dc:	4ab100ef          	jal	22486 <__floatsitf>
   117e0:	86ae                	mv	a3,a1
   117e2:	862a                	mv	a2,a0
   117e4:	85ca                	mv	a1,s2
   117e6:	855a                	mv	a0,s6
   117e8:	3b0100ef          	jal	21b98 <__subtf3>
   117ec:	018b86b3          	add	a3,s7,s8
   117f0:	0006c683          	lbu	a3,0(a3)
   117f4:	8826                	mv	a6,s1
   117f6:	8b2a                	mv	s6,a0
   117f8:	00d48023          	sb	a3,0(s1)
   117fc:	0485                	addi	s1,s1,1
   117fe:	892e                	mv	s2,a1
   11800:	fa0a99e3          	bnez	s5,117b2 <_vfprintf_r+0x3ac>
   11804:	00011697          	auipc	a3,0x11
   11808:	22c68693          	addi	a3,a3,556 # 22a30 <blanks.1+0x30>
   1180c:	0086ba83          	ld	s5,8(a3)
   11810:	6290                	ld	a2,0(a3)
   11812:	8726                	mv	a4,s1
   11814:	86d6                	mv	a3,s5
   11816:	e0c2                	sd	a6,64(sp)
   11818:	f866                	sd	s9,48(sp)
   1181a:	7be6                	ld	s7,120(sp)
   1181c:	84e2                	mv	s1,s8
   1181e:	fcb2                	sd	a2,120(sp)
   11820:	8c3a                	mv	s8,a4
   11822:	3f70f0ef          	jal	21418 <__getf2>
   11826:	6c8a                	ld	s9,128(sp)
   11828:	77c2                	ld	a5,48(sp)
   1182a:	6806                	ld	a6,64(sp)
   1182c:	02a04063          	bgtz	a0,1184c <_vfprintf_r+0x446>
   11830:	7666                	ld	a2,120(sp)
   11832:	86d6                	mv	a3,s5
   11834:	855a                	mv	a0,s6
   11836:	85ca                	mv	a1,s2
   11838:	e0be                	sd	a5,64(sp)
   1183a:	f842                	sd	a6,48(sp)
   1183c:	3350f0ef          	jal	21370 <__eqtf2>
   11840:	6786                	ld	a5,64(sp)
   11842:	e529                	bnez	a0,1188c <_vfprintf_r+0x486>
   11844:	0014f713          	andi	a4,s1,1
   11848:	7842                	ld	a6,48(sp)
   1184a:	c329                	beqz	a4,1188c <_vfprintf_r+0x486>
   1184c:	7706                	ld	a4,96(sp)
   1184e:	e5c2                	sd	a6,200(sp)
   11850:	fffc4683          	lbu	a3,-1(s8)
   11854:	00f74603          	lbu	a2,15(a4)
   11858:	8762                	mv	a4,s8
   1185a:	00d61e63          	bne	a2,a3,11876 <_vfprintf_r+0x470>
   1185e:	03000593          	li	a1,48
   11862:	feb70fa3          	sb	a1,-1(a4)
   11866:	672e                	ld	a4,200(sp)
   11868:	fff70693          	addi	a3,a4,-1
   1186c:	e5b6                	sd	a3,200(sp)
   1186e:	fff74683          	lbu	a3,-1(a4)
   11872:	fec688e3          	beq	a3,a2,11862 <_vfprintf_r+0x45c>
   11876:	03900613          	li	a2,57
   1187a:	00c69463          	bne	a3,a2,11882 <_vfprintf_r+0x47c>
   1187e:	37d0106f          	j	133fa <_vfprintf_r+0x1ff4>
   11882:	2685                	addiw	a3,a3,1
   11884:	0ff6f693          	zext.b	a3,a3
   11888:	fed70fa3          	sb	a3,-1(a4)
   1188c:	56ca                	lw	a3,176(sp)
   1188e:	00fd871b          	addiw	a4,s11,15
   11892:	0ae10c23          	sb	a4,184(sp)
   11896:	40fc063b          	subw	a2,s8,a5
   1189a:	fff6871b          	addiw	a4,a3,-1
   1189e:	d93a                	sw	a4,176(sp)
   118a0:	f832                	sd	a2,48(sp)
   118a2:	00075463          	bgez	a4,118aa <_vfprintf_r+0x4a4>
   118a6:	2c90106f          	j	1336e <_vfprintf_r+0x1f68>
   118aa:	02b00693          	li	a3,43
   118ae:	0ad10ca3          	sb	a3,185(sp)
   118b2:	46a5                	li	a3,9
   118b4:	00e6d463          	bge	a3,a4,118bc <_vfprintf_r+0x4b6>
   118b8:	5940106f          	j	12e4c <_vfprintf_r+0x1a46>
   118bc:	0ba10693          	addi	a3,sp,186
   118c0:	0307071b          	addiw	a4,a4,48
   118c4:	00e68023          	sb	a4,0(a3)
   118c8:	1398                	addi	a4,sp,480
   118ca:	8e99                	sub	a3,a3,a4
   118cc:	1296871b          	addiw	a4,a3,297
   118d0:	f0ba                	sd	a4,96(sp)
   118d2:	5ea0106f          	j	12ebc <_vfprintf_r+0x1ab6>
   118d6:	65c2                	ld	a1,16(sp)
   118d8:	6522                	ld	a0,8(sp)
   118da:	1190                	addi	a2,sp,224
   118dc:	ed46                	sd	a7,152(sp)
   118de:	e942                	sd	a6,144(sp)
   118e0:	e172                	sd	t3,128(sp)
   118e2:	fcbe                	sd	a5,120(sp)
   118e4:	ec96                	sd	t0,88(sp)
   118e6:	424040ef          	jal	15d0a <__sprint_r>
   118ea:	74051463          	bnez	a0,12032 <_vfprintf_r+0xc2c>
   118ee:	794e                	ld	s2,240(sp)
   118f0:	68ea                	ld	a7,152(sp)
   118f2:	684a                	ld	a6,144(sp)
   118f4:	6e0a                	ld	t3,128(sp)
   118f6:	77e6                	ld	a5,120(sp)
   118f8:	62e6                	ld	t0,88(sp)
   118fa:	8bd2                	mv	s7,s4
   118fc:	b1c5                	j	115dc <_vfprintf_r+0x1d6>
   118fe:	572e                	lw	a4,232(sp)
   11900:	00011697          	auipc	a3,0x11
   11904:	d3868693          	addi	a3,a3,-712 # 22638 <__clzdi2+0x9c>
   11908:	00dbb023          	sd	a3,0(s7)
   1190c:	0905                	addi	s2,s2,1
   1190e:	4685                	li	a3,1
   11910:	2705                	addiw	a4,a4,1
   11912:	00dbb423          	sd	a3,8(s7)
   11916:	f9ca                	sd	s2,240(sp)
   11918:	d5ba                	sw	a4,232(sp)
   1191a:	469d                	li	a3,7
   1191c:	0bc1                	addi	s7,s7,16
   1191e:	00e6d463          	bge	a3,a4,11926 <_vfprintf_r+0x520>
   11922:	64c0106f          	j	12f6e <_vfprintf_r+0x1b68>
   11926:	7742                	ld	a4,48(sp)
   11928:	8f51                	or	a4,a4,a2
   1192a:	e319                	bnez	a4,11930 <_vfprintf_r+0x52a>
   1192c:	2780106f          	j	12ba4 <_vfprintf_r+0x179e>
   11930:	6726                	ld	a4,72(sp)
   11932:	56ae                	lw	a3,232(sp)
   11934:	65c6                	ld	a1,80(sp)
   11936:	993a                	add	s2,s2,a4
   11938:	2685                	addiw	a3,a3,1
   1193a:	00ebb423          	sd	a4,8(s7)
   1193e:	00bbb023          	sd	a1,0(s7)
   11942:	f9ca                	sd	s2,240(sp)
   11944:	d5b6                	sw	a3,232(sp)
   11946:	471d                	li	a4,7
   11948:	0bc1                	addi	s7,s7,16
   1194a:	00d75463          	bge	a4,a3,11952 <_vfprintf_r+0x54c>
   1194e:	27c0106f          	j	12bca <_vfprintf_r+0x17c4>
   11952:	00065463          	bgez	a2,1195a <_vfprintf_r+0x554>
   11956:	7ce0106f          	j	13124 <_vfprintf_r+0x1d1e>
   1195a:	7742                	ld	a4,48(sp)
   1195c:	2685                	addiw	a3,a3,1
   1195e:	00fbb023          	sd	a5,0(s7)
   11962:	993a                	add	s2,s2,a4
   11964:	f9ca                	sd	s2,240(sp)
   11966:	d5b6                	sw	a3,232(sp)
   11968:	00ebb423          	sd	a4,8(s7)
   1196c:	479d                	li	a5,7
   1196e:	cad7dee3          	bge	a5,a3,1162a <_vfprintf_r+0x224>
   11972:	65c2                	ld	a1,16(sp)
   11974:	6522                	ld	a0,8(sp)
   11976:	1190                	addi	a2,sp,224
   11978:	e0c2                	sd	a6,64(sp)
   1197a:	fc72                	sd	t3,56(sp)
   1197c:	38e040ef          	jal	15d0a <__sprint_r>
   11980:	6a051963          	bnez	a0,12032 <_vfprintf_r+0xc2c>
   11984:	794e                	ld	s2,240(sp)
   11986:	7e62                	ld	t3,56(sp)
   11988:	6806                	ld	a6,64(sp)
   1198a:	8bd2                	mv	s7,s4
   1198c:	b145                	j	1162c <_vfprintf_r+0x226>
   1198e:	7702                	ld	a4,32(sp)
   11990:	8e26                	mv	t3,s1
   11992:	4885                	li	a7,1
   11994:	431c                	lw	a5,0(a4)
   11996:	0a0103a3          	sb	zero,167(sp)
   1199a:	0ef10c23          	sb	a5,248(sp)
   1199e:	00870793          	addi	a5,a4,8
   119a2:	f03e                	sd	a5,32(sp)
   119a4:	bee5                	j	1159c <_vfprintf_r+0x196>
   119a6:	7702                	ld	a4,32(sp)
   119a8:	0a0103a3          	sb	zero,167(sp)
   119ac:	8e26                	mv	t3,s1
   119ae:	631c                	ld	a5,0(a4)
   119b0:	00870493          	addi	s1,a4,8
   119b4:	4e078ce3          	beqz	a5,126ac <_vfprintf_r+0x12a6>
   119b8:	700acae3          	bltz	s5,128cc <_vfprintf_r+0x14c6>
   119bc:	853e                	mv	a0,a5
   119be:	8656                	mv	a2,s5
   119c0:	4581                	li	a1,0
   119c2:	fc72                	sd	t3,56(sp)
   119c4:	f03e                	sd	a5,32(sp)
   119c6:	04e050ef          	jal	16a14 <memchr>
   119ca:	f42a                	sd	a0,40(sp)
   119cc:	0a714703          	lbu	a4,167(sp)
   119d0:	7782                	ld	a5,32(sp)
   119d2:	7e62                	ld	t3,56(sp)
   119d4:	e119                	bnez	a0,119da <_vfprintf_r+0x5d4>
   119d6:	6f60106f          	j	130cc <_vfprintf_r+0x1cc6>
   119da:	40f508bb          	subw	a7,a0,a5
   119de:	86c6                	mv	a3,a7
   119e0:	0008d463          	bgez	a7,119e8 <_vfprintf_r+0x5e2>
   119e4:	2ae0106f          	j	12c92 <_vfprintf_r+0x188c>
   119e8:	0006881b          	sext.w	a6,a3
   119ec:	c319                	beqz	a4,119f2 <_vfprintf_r+0x5ec>
   119ee:	21e0106f          	j	12c0c <_vfprintf_r+0x1806>
   119f2:	f026                	sd	s1,32(sp)
   119f4:	794e                	ld	s2,240(sp)
   119f6:	f402                	sd	zero,40(sp)
   119f8:	e082                	sd	zero,64(sp)
   119fa:	fc02                	sd	zero,56(sp)
   119fc:	084e7493          	andi	s1,t3,132
   11a00:	4a81                	li	s5,0
   11a02:	4b01                	li	s6,0
   11a04:	85ca                	mv	a1,s2
   11a06:	ba0498e3          	bnez	s1,115b6 <_vfprintf_r+0x1b0>
   11a0a:	410d073b          	subw	a4,s10,a6
   11a0e:	1ee047e3          	bgtz	a4,123fc <_vfprintf_r+0xff6>
   11a12:	0a714703          	lbu	a4,167(sp)
   11a16:	ba0713e3          	bnez	a4,115bc <_vfprintf_r+0x1b6>
   11a1a:	411a8abb          	subw	s5,s5,a7
   11a1e:	bf5057e3          	blez	s5,1160c <_vfprintf_r+0x206>
   11a22:	56ae                	lw	a3,232(sp)
   11a24:	00011497          	auipc	s1,0x11
   11a28:	fcc48493          	addi	s1,s1,-52 # 229f0 <zeroes.0>
   11a2c:	05545c63          	bge	s0,s5,11a84 <_vfprintf_r+0x67e>
   11a30:	8c56                	mv	s8,s5
   11a32:	ecbe                	sd	a5,88(sp)
   11a34:	874a                	mv	a4,s2
   11a36:	87de                	mv	a5,s7
   11a38:	8ac2                	mv	s5,a6
   11a3a:	8bda                	mv	s7,s6
   11a3c:	8972                	mv	s2,t3
   11a3e:	8b46                	mv	s6,a7
   11a40:	a021                	j	11a48 <_vfprintf_r+0x642>
   11a42:	3c41                	addiw	s8,s8,-16
   11a44:	03845863          	bge	s0,s8,11a74 <_vfprintf_r+0x66e>
   11a48:	0741                	addi	a4,a4,16
   11a4a:	2685                	addiw	a3,a3,1
   11a4c:	e384                	sd	s1,0(a5)
   11a4e:	e780                	sd	s0,8(a5)
   11a50:	f9ba                	sd	a4,240(sp)
   11a52:	d5b6                	sw	a3,232(sp)
   11a54:	07c1                	addi	a5,a5,16
   11a56:	fed9d6e3          	bge	s3,a3,11a42 <_vfprintf_r+0x63c>
   11a5a:	65c2                	ld	a1,16(sp)
   11a5c:	6522                	ld	a0,8(sp)
   11a5e:	1190                	addi	a2,sp,224
   11a60:	2aa040ef          	jal	15d0a <__sprint_r>
   11a64:	5c051763          	bnez	a0,12032 <_vfprintf_r+0xc2c>
   11a68:	3c41                	addiw	s8,s8,-16
   11a6a:	774e                	ld	a4,240(sp)
   11a6c:	56ae                	lw	a3,232(sp)
   11a6e:	87d2                	mv	a5,s4
   11a70:	fd844ce3          	blt	s0,s8,11a48 <_vfprintf_r+0x642>
   11a74:	88da                	mv	a7,s6
   11a76:	8b5e                	mv	s6,s7
   11a78:	8bbe                	mv	s7,a5
   11a7a:	67e6                	ld	a5,88(sp)
   11a7c:	8e4a                	mv	t3,s2
   11a7e:	8856                	mv	a6,s5
   11a80:	893a                	mv	s2,a4
   11a82:	8ae2                	mv	s5,s8
   11a84:	9956                	add	s2,s2,s5
   11a86:	2685                	addiw	a3,a3,1
   11a88:	009bb023          	sd	s1,0(s7)
   11a8c:	015bb423          	sd	s5,8(s7)
   11a90:	f9ca                	sd	s2,240(sp)
   11a92:	d5b6                	sw	a3,232(sp)
   11a94:	471d                	li	a4,7
   11a96:	0bc1                	addi	s7,s7,16
   11a98:	b6d75ae3          	bge	a4,a3,1160c <_vfprintf_r+0x206>
   11a9c:	65c2                	ld	a1,16(sp)
   11a9e:	6522                	ld	a0,8(sp)
   11aa0:	1190                	addi	a2,sp,224
   11aa2:	e946                	sd	a7,144(sp)
   11aa4:	e142                	sd	a6,128(sp)
   11aa6:	fcf2                	sd	t3,120(sp)
   11aa8:	ecbe                	sd	a5,88(sp)
   11aaa:	260040ef          	jal	15d0a <__sprint_r>
   11aae:	58051263          	bnez	a0,12032 <_vfprintf_r+0xc2c>
   11ab2:	7e66                	ld	t3,120(sp)
   11ab4:	794e                	ld	s2,240(sp)
   11ab6:	68ca                	ld	a7,144(sp)
   11ab8:	100e7713          	andi	a4,t3,256
   11abc:	680a                	ld	a6,128(sp)
   11abe:	67e6                	ld	a5,88(sp)
   11ac0:	8bd2                	mv	s7,s4
   11ac2:	b40709e3          	beqz	a4,11614 <_vfprintf_r+0x20e>
   11ac6:	06500713          	li	a4,101
   11aca:	5db75763          	bge	a4,s11,12098 <_vfprintf_r+0xc92>
   11ace:	654e                	ld	a0,208(sp)
   11ad0:	65ee                	ld	a1,216(sp)
   11ad2:	4601                	li	a2,0
   11ad4:	4681                	li	a3,0
   11ad6:	e142                	sd	a6,128(sp)
   11ad8:	fcf2                	sd	t3,120(sp)
   11ada:	ecbe                	sd	a5,88(sp)
   11adc:	0950f0ef          	jal	21370 <__eqtf2>
   11ae0:	67e6                	ld	a5,88(sp)
   11ae2:	7e66                	ld	t3,120(sp)
   11ae4:	680a                	ld	a6,128(sp)
   11ae6:	76051263          	bnez	a0,1224a <_vfprintf_r+0xe44>
   11aea:	57ae                	lw	a5,232(sp)
   11aec:	00011717          	auipc	a4,0x11
   11af0:	b4c70713          	addi	a4,a4,-1204 # 22638 <__clzdi2+0x9c>
   11af4:	00ebb023          	sd	a4,0(s7)
   11af8:	0905                	addi	s2,s2,1
   11afa:	4705                	li	a4,1
   11afc:	2785                	addiw	a5,a5,1
   11afe:	00ebb423          	sd	a4,8(s7)
   11b02:	f9ca                	sd	s2,240(sp)
   11b04:	d5be                	sw	a5,232(sp)
   11b06:	471d                	li	a4,7
   11b08:	0bc1                	addi	s7,s7,16
   11b0a:	50f74ce3          	blt	a4,a5,12822 <_vfprintf_r+0x141c>
   11b0e:	57ca                	lw	a5,176(sp)
   11b10:	7742                	ld	a4,48(sp)
   11b12:	18e7dee3          	bge	a5,a4,124ae <_vfprintf_r+0x10a8>
   11b16:	6726                	ld	a4,72(sp)
   11b18:	57ae                	lw	a5,232(sp)
   11b1a:	66c6                	ld	a3,80(sp)
   11b1c:	993a                	add	s2,s2,a4
   11b1e:	2785                	addiw	a5,a5,1
   11b20:	00ebb423          	sd	a4,8(s7)
   11b24:	00dbb023          	sd	a3,0(s7)
   11b28:	f9ca                	sd	s2,240(sp)
   11b2a:	d5be                	sw	a5,232(sp)
   11b2c:	471d                	li	a4,7
   11b2e:	0bc1                	addi	s7,s7,16
   11b30:	2ef749e3          	blt	a4,a5,12622 <_vfprintf_r+0x121c>
   11b34:	77c2                	ld	a5,48(sp)
   11b36:	fff78a9b          	addiw	s5,a5,-1
   11b3a:	af5059e3          	blez	s5,1162c <_vfprintf_r+0x226>
   11b3e:	4b41                	li	s6,16
   11b40:	57ae                	lw	a5,232(sp)
   11b42:	015b4463          	blt	s6,s5,11b4a <_vfprintf_r+0x744>
   11b46:	41e0106f          	j	12f64 <_vfprintf_r+0x1b5e>
   11b4a:	874a                	mv	a4,s2
   11b4c:	84d6                	mv	s1,s5
   11b4e:	4d9d                	li	s11,7
   11b50:	8972                	mv	s2,t3
   11b52:	00011c17          	auipc	s8,0x11
   11b56:	e9ec0c13          	addi	s8,s8,-354 # 229f0 <zeroes.0>
   11b5a:	8ac2                	mv	s5,a6
   11b5c:	a021                	j	11b64 <_vfprintf_r+0x75e>
   11b5e:	34c1                	addiw	s1,s1,-16
   11b60:	4e9b53e3          	bge	s6,s1,12846 <_vfprintf_r+0x1440>
   11b64:	0741                	addi	a4,a4,16
   11b66:	2785                	addiw	a5,a5,1
   11b68:	018bb023          	sd	s8,0(s7)
   11b6c:	016bb423          	sd	s6,8(s7)
   11b70:	f9ba                	sd	a4,240(sp)
   11b72:	d5be                	sw	a5,232(sp)
   11b74:	0bc1                	addi	s7,s7,16
   11b76:	fefdd4e3          	bge	s11,a5,11b5e <_vfprintf_r+0x758>
   11b7a:	65c2                	ld	a1,16(sp)
   11b7c:	6522                	ld	a0,8(sp)
   11b7e:	1190                	addi	a2,sp,224
   11b80:	18a040ef          	jal	15d0a <__sprint_r>
   11b84:	4a051763          	bnez	a0,12032 <_vfprintf_r+0xc2c>
   11b88:	774e                	ld	a4,240(sp)
   11b8a:	57ae                	lw	a5,232(sp)
   11b8c:	8bd2                	mv	s7,s4
   11b8e:	bfc1                	j	11b5e <_vfprintf_r+0x758>
   11b90:	7702                	ld	a4,32(sp)
   11b92:	0204f793          	andi	a5,s1,32
   11b96:	8e26                	mv	t3,s1
   11b98:	0721                	addi	a4,a4,8
   11b9a:	e7d1                	bnez	a5,11c26 <_vfprintf_r+0x820>
   11b9c:	0104f793          	andi	a5,s1,16
   11ba0:	c399                	beqz	a5,11ba6 <_vfprintf_r+0x7a0>
   11ba2:	57c0106f          	j	1311e <_vfprintf_r+0x1d18>
   11ba6:	7682                	ld	a3,32(sp)
   11ba8:	0404f793          	andi	a5,s1,64
   11bac:	0006a903          	lw	s2,0(a3)
   11bb0:	560785e3          	beqz	a5,1291a <_vfprintf_r+0x1514>
   11bb4:	0109191b          	slliw	s2,s2,0x10
   11bb8:	4109591b          	sraiw	s2,s2,0x10
   11bbc:	f03a                	sd	a4,32(sp)
   11bbe:	87ca                	mv	a5,s2
   11bc0:	0607c963          	bltz	a5,11c32 <_vfprintf_r+0x82c>
   11bc4:	080ac163          	bltz	s5,11c46 <_vfprintf_r+0x840>
   11bc8:	f7fe7e13          	andi	t3,t3,-129
   11bcc:	06091d63          	bnez	s2,11c46 <_vfprintf_r+0x840>
   11bd0:	060a9b63          	bnez	s5,11c46 <_vfprintf_r+0x840>
   11bd4:	0a714283          	lbu	t0,167(sp)
   11bd8:	5c0289e3          	beqz	t0,129aa <_vfprintf_r+0x15a4>
   11bdc:	4801                	li	a6,0
   11bde:	4b01                	li	s6,0
   11be0:	f402                	sd	zero,40(sp)
   11be2:	4881                	li	a7,0
   11be4:	4a81                	li	s5,0
   11be6:	0afc                	addi	a5,sp,348
   11be8:	2805                	addiw	a6,a6,1
   11bea:	000b1463          	bnez	s6,11bf2 <_vfprintf_r+0x7ec>
   11bee:	04f0106f          	j	1343c <_vfprintf_r+0x2036>
   11bf2:	794e                	ld	s2,240(sp)
   11bf4:	552e                	lw	a0,232(sp)
   11bf6:	084e7493          	andi	s1,t3,132
   11bfa:	2809                	addiw	a6,a6,2
   11bfc:	85ca                	mv	a1,s2
   11bfe:	862a                	mv	a2,a0
   11c00:	48048063          	beqz	s1,12080 <_vfprintf_r+0xc7a>
   11c04:	e082                	sd	zero,64(sp)
   11c06:	fc02                	sd	zero,56(sp)
   11c08:	4b01                	li	s6,0
   11c0a:	9c028ce3          	beqz	t0,115e2 <_vfprintf_r+0x1dc>
   11c0e:	4289                	li	t0,2
   11c10:	ba45                	j	115c0 <_vfprintf_r+0x1ba>
   11c12:	0204f793          	andi	a5,s1,32
   11c16:	0104ef13          	ori	t5,s1,16
   11c1a:	140781e3          	beqz	a5,1255c <_vfprintf_r+0x1156>
   11c1e:	7782                	ld	a5,32(sp)
   11c20:	8e7a                	mv	t3,t5
   11c22:	00878713          	addi	a4,a5,8
   11c26:	7782                	ld	a5,32(sp)
   11c28:	f03a                	sd	a4,32(sp)
   11c2a:	639c                	ld	a5,0(a5)
   11c2c:	893e                	mv	s2,a5
   11c2e:	f807dbe3          	bgez	a5,11bc4 <_vfprintf_r+0x7be>
   11c32:	02d00793          	li	a5,45
   11c36:	0af103a3          	sb	a5,167(sp)
   11c3a:	41200933          	neg	s2,s2
   11c3e:	000ac463          	bltz	s5,11c46 <_vfprintf_r+0x840>
   11c42:	f7fe7e13          	andi	t3,t3,-129
   11c46:	4825                	li	a6,9
   11c48:	11286663          	bltu	a6,s2,11d54 <_vfprintf_r+0x94e>
   11c4c:	0309091b          	addiw	s2,s2,48
   11c50:	15210da3          	sb	s2,347(sp)
   11c54:	000a881b          	sext.w	a6,s5
   11c58:	11505ce3          	blez	s5,12570 <_vfprintf_r+0x116a>
   11c5c:	0a714283          	lbu	t0,167(sp)
   11c60:	4b01                	li	s6,0
   11c62:	4885                	li	a7,1
   11c64:	15b10793          	addi	a5,sp,347
   11c68:	f402                	sd	zero,40(sp)
   11c6a:	f80280e3          	beqz	t0,11bea <_vfprintf_r+0x7e4>
   11c6e:	2805                	addiw	a6,a6,1
   11c70:	bfad                	j	11bea <_vfprintf_r+0x7e4>
   11c72:	7782                	ld	a5,32(sp)
   11c74:	0007ad03          	lw	s10,0(a5)
   11c78:	040d51e3          	bgez	s10,124ba <_vfprintf_r+0x10b4>
   11c7c:	7782                	ld	a5,32(sp)
   11c7e:	41a00d3b          	negw	s10,s10
   11c82:	07a1                	addi	a5,a5,8
   11c84:	f03e                	sd	a5,32(sp)
   11c86:	000cc303          	lbu	t1,0(s9)
   11c8a:	0044e493          	ori	s1,s1,4
   11c8e:	b04d                	j	11530 <_vfprintf_r+0x12a>
   11c90:	02b00793          	li	a5,43
   11c94:	000cc303          	lbu	t1,0(s9)
   11c98:	0af103a3          	sb	a5,167(sp)
   11c9c:	b851                	j	11530 <_vfprintf_r+0x12a>
   11c9e:	000cc303          	lbu	t1,0(s9)
   11ca2:	0804e493          	ori	s1,s1,128
   11ca6:	b069                	j	11530 <_vfprintf_r+0x12a>
   11ca8:	000ccd83          	lbu	s11,0(s9)
   11cac:	02a00793          	li	a5,42
   11cb0:	001c8613          	addi	a2,s9,1
   11cb4:	00fd9463          	bne	s11,a5,11cbc <_vfprintf_r+0x8b6>
   11cb8:	7160106f          	j	133ce <_vfprintf_r+0x1fc8>
   11cbc:	fd0d871b          	addiw	a4,s11,-48
   11cc0:	45a5                	li	a1,9
   11cc2:	4681                	li	a3,0
   11cc4:	8cb2                	mv	s9,a2
   11cc6:	4a81                	li	s5,0
   11cc8:	86e5e7e3          	bltu	a1,a4,11536 <_vfprintf_r+0x130>
   11ccc:	0026979b          	slliw	a5,a3,0x2
   11cd0:	00064d83          	lbu	s11,0(a2) # 2000 <exit-0xe120>
   11cd4:	9fb5                	addw	a5,a5,a3
   11cd6:	0017979b          	slliw	a5,a5,0x1
   11cda:	00e786bb          	addw	a3,a5,a4
   11cde:	fd0d871b          	addiw	a4,s11,-48
   11ce2:	0605                	addi	a2,a2,1
   11ce4:	fee5f4e3          	bgeu	a1,a4,11ccc <_vfprintf_r+0x8c6>
   11ce8:	00068a9b          	sext.w	s5,a3
   11cec:	1206c7e3          	bltz	a3,1261a <_vfprintf_r+0x1214>
   11cf0:	8cb2                	mv	s9,a2
   11cf2:	845ff06f          	j	11536 <_vfprintf_r+0x130>
   11cf6:	0204f793          	andi	a5,s1,32
   11cfa:	0104ef13          	ori	t5,s1,16
   11cfe:	eb8d                	bnez	a5,11d30 <_vfprintf_r+0x92a>
   11d00:	7702                	ld	a4,32(sp)
   11d02:	0a0103a3          	sb	zero,167(sp)
   11d06:	00073903          	ld	s2,0(a4)
   11d0a:	00870793          	addi	a5,a4,8
   11d0e:	060acae3          	bltz	s5,12582 <_vfprintf_r+0x117c>
   11d12:	f03e                	sd	a5,32(sp)
   11d14:	f7ff7e13          	andi	t3,t5,-129
   11d18:	f20917e3          	bnez	s2,11c46 <_vfprintf_r+0x840>
   11d1c:	f20a95e3          	bnez	s5,11c46 <_vfprintf_r+0x840>
   11d20:	4b01                	li	s6,0
   11d22:	a2c9                	j	11ee4 <_vfprintf_r+0xade>
   11d24:	0204f793          	andi	a5,s1,32
   11d28:	8e26                	mv	t3,s1
   11d2a:	7e078b63          	beqz	a5,12520 <_vfprintf_r+0x111a>
   11d2e:	8f26                	mv	t5,s1
   11d30:	7702                	ld	a4,32(sp)
   11d32:	0a0103a3          	sb	zero,167(sp)
   11d36:	00073903          	ld	s2,0(a4)
   11d3a:	00870793          	addi	a5,a4,8
   11d3e:	040ac2e3          	bltz	s5,12582 <_vfprintf_r+0x117c>
   11d42:	f03e                	sd	a5,32(sp)
   11d44:	f7ff7e13          	andi	t3,t5,-129
   11d48:	ee0a9fe3          	bnez	s5,11c46 <_vfprintf_r+0x840>
   11d4c:	ee091de3          	bnez	s2,11c46 <_vfprintf_r+0x840>
   11d50:	4b01                	li	s6,0
   11d52:	aa49                	j	11ee4 <_vfprintf_r+0xade>
   11d54:	ccccd7b7          	lui	a5,0xccccd
   11d58:	ccd78793          	addi	a5,a5,-819 # ffffffffcccccccd <__BSS_END__+0xffffffffccca7255>
   11d5c:	02079b13          	slli	s6,a5,0x20
   11d60:	15c10893          	addi	a7,sp,348
   11d64:	7c46                	ld	s8,112(sp)
   11d66:	9b3e                	add	s6,s6,a5
   11d68:	8646                	mv	a2,a7
   11d6a:	400e7493          	andi	s1,t3,1024
   11d6e:	4581                	li	a1,0
   11d70:	a809                	j	11d82 <_vfprintf_r+0x97c>
   11d72:	874a                	mv	a4,s2
   11d74:	03693933          	mulhu	s2,s2,s6
   11d78:	863e                	mv	a2,a5
   11d7a:	00395913          	srli	s2,s2,0x3
   11d7e:	02e87e63          	bgeu	a6,a4,11dba <_vfprintf_r+0x9b4>
   11d82:	036936b3          	mulhu	a3,s2,s6
   11d86:	2585                	addiw	a1,a1,1
   11d88:	fff60793          	addi	a5,a2,-1
   11d8c:	828d                	srli	a3,a3,0x3
   11d8e:	00269713          	slli	a4,a3,0x2
   11d92:	9736                	add	a4,a4,a3
   11d94:	0706                	slli	a4,a4,0x1
   11d96:	40e90733          	sub	a4,s2,a4
   11d9a:	0307071b          	addiw	a4,a4,48
   11d9e:	fee60fa3          	sb	a4,-1(a2)
   11da2:	d8e1                	beqz	s1,11d72 <_vfprintf_r+0x96c>
   11da4:	000c4703          	lbu	a4,0(s8)
   11da8:	f0170693          	addi	a3,a4,-255
   11dac:	d2f9                	beqz	a3,11d72 <_vfprintf_r+0x96c>
   11dae:	fcb712e3          	bne	a4,a1,11d72 <_vfprintf_r+0x96c>
   11db2:	01287463          	bgeu	a6,s2,11dba <_vfprintf_r+0x9b4>
   11db6:	2b40106f          	j	1306a <_vfprintf_r+0x1c64>
   11dba:	f8e2                	sd	s8,112(sp)
   11dbc:	f82e                	sd	a1,48(sp)
   11dbe:	40f888bb          	subw	a7,a7,a5
   11dc2:	000a881b          	sext.w	a6,s5
   11dc6:	011ad463          	bge	s5,a7,11dce <_vfprintf_r+0x9c8>
   11dca:	0008881b          	sext.w	a6,a7
   11dce:	0a714283          	lbu	t0,167(sp)
   11dd2:	4b01                	li	s6,0
   11dd4:	f402                	sd	zero,40(sp)
   11dd6:	bd51                	j	11c6a <_vfprintf_r+0x864>
   11dd8:	6b22                	ld	s6,8(sp)
   11dda:	855a                	mv	a0,s6
   11ddc:	60b040ef          	jal	16be6 <_localeconv_r>
   11de0:	651c                	ld	a5,8(a0)
   11de2:	853e                	mv	a0,a5
   11de4:	f4be                	sd	a5,104(sp)
   11de6:	044050ef          	jal	16e2a <strlen>
   11dea:	87aa                	mv	a5,a0
   11dec:	855a                	mv	a0,s6
   11dee:	e53e                	sd	a5,136(sp)
   11df0:	8b3e                	mv	s6,a5
   11df2:	5f5040ef          	jal	16be6 <_localeconv_r>
   11df6:	6918                	ld	a4,16(a0)
   11df8:	000cc303          	lbu	t1,0(s9)
   11dfc:	f8ba                	sd	a4,112(sp)
   11dfe:	f20b0963          	beqz	s6,11530 <_vfprintf_r+0x12a>
   11e02:	f2070763          	beqz	a4,11530 <_vfprintf_r+0x12a>
   11e06:	00074783          	lbu	a5,0(a4)
   11e0a:	f2078363          	beqz	a5,11530 <_vfprintf_r+0x12a>
   11e0e:	4004e493          	ori	s1,s1,1024
   11e12:	f1eff06f          	j	11530 <_vfprintf_r+0x12a>
   11e16:	000cc303          	lbu	t1,0(s9)
   11e1a:	0014e493          	ori	s1,s1,1
   11e1e:	f12ff06f          	j	11530 <_vfprintf_r+0x12a>
   11e22:	0a714783          	lbu	a5,167(sp)
   11e26:	000cc303          	lbu	t1,0(s9)
   11e2a:	f0079363          	bnez	a5,11530 <_vfprintf_r+0x12a>
   11e2e:	02000793          	li	a5,32
   11e32:	0af103a3          	sb	a5,167(sp)
   11e36:	efaff06f          	j	11530 <_vfprintf_r+0x12a>
   11e3a:	000cc303          	lbu	t1,0(s9)
   11e3e:	0084e493          	ori	s1,s1,8
   11e42:	eeeff06f          	j	11530 <_vfprintf_r+0x12a>
   11e46:	7782                	ld	a5,32(sp)
   11e48:	0104e813          	ori	a6,s1,16
   11e4c:	00878713          	addi	a4,a5,8
   11e50:	7782                	ld	a5,32(sp)
   11e52:	6394                	ld	a3,0(a5)
   11e54:	f03a                	sd	a4,32(sp)
   11e56:	0a0103a3          	sb	zero,167(sp)
   11e5a:	bff87e13          	andi	t3,a6,-1025
   11e5e:	3a0ac463          	bltz	s5,12206 <_vfprintf_r+0xe00>
   11e62:	b7f87e13          	andi	t3,a6,-1153
   11e66:	3a0a9063          	bnez	s5,12206 <_vfprintf_r+0xe00>
   11e6a:	38069e63          	bnez	a3,12206 <_vfprintf_r+0xe00>
   11e6e:	00187813          	andi	a6,a6,1
   11e72:	58080963          	beqz	a6,12404 <_vfprintf_r+0xffe>
   11e76:	03000793          	li	a5,48
   11e7a:	14f10da3          	sb	a5,347(sp)
   11e7e:	88c2                	mv	a7,a6
   11e80:	f402                	sd	zero,40(sp)
   11e82:	4a81                	li	s5,0
   11e84:	e082                	sd	zero,64(sp)
   11e86:	fc02                	sd	zero,56(sp)
   11e88:	4b01                	li	s6,0
   11e8a:	15b10793          	addi	a5,sp,347
   11e8e:	f1cff06f          	j	115aa <_vfprintf_r+0x1a4>
   11e92:	000cc303          	lbu	t1,0(s9)
   11e96:	06800793          	li	a5,104
   11e9a:	7af30a63          	beq	t1,a5,1264e <_vfprintf_r+0x1248>
   11e9e:	0404e493          	ori	s1,s1,64
   11ea2:	e8eff06f          	j	11530 <_vfprintf_r+0x12a>
   11ea6:	000cc303          	lbu	t1,0(s9)
   11eaa:	0204e493          	ori	s1,s1,32
   11eae:	e82ff06f          	j	11530 <_vfprintf_r+0x12a>
   11eb2:	67a1                	lui	a5,0x8
   11eb4:	83078793          	addi	a5,a5,-2000 # 7830 <exit-0x88f0>
   11eb8:	0af11423          	sh	a5,168(sp)
   11ebc:	7782                	ld	a5,32(sp)
   11ebe:	0a0103a3          	sb	zero,167(sp)
   11ec2:	6398                	ld	a4,0(a5)
   11ec4:	00878593          	addi	a1,a5,8
   11ec8:	6c0ac163          	bltz	s5,1258a <_vfprintf_r+0x1184>
   11ecc:	f7f4ff13          	andi	t5,s1,-129
   11ed0:	002f6e13          	ori	t3,t5,2
   11ed4:	1c0a99e3          	bnez	s5,128a6 <_vfprintf_r+0x14a0>
   11ed8:	1c0717e3          	bnez	a4,128a6 <_vfprintf_r+0x14a0>
   11edc:	f02e                	sd	a1,32(sp)
   11ede:	4b09                	li	s6,2
   11ee0:	07800d93          	li	s11,120
   11ee4:	0a714283          	lbu	t0,167(sp)
   11ee8:	4a81                	li	s5,0
   11eea:	4801                	li	a6,0
   11eec:	4881                	li	a7,0
   11eee:	0afc                	addi	a5,sp,348
   11ef0:	f402                	sd	zero,40(sp)
   11ef2:	bba5                	j	11c6a <_vfprintf_r+0x864>
   11ef4:	7702                	ld	a4,32(sp)
   11ef6:	0204f793          	andi	a5,s1,32
   11efa:	8e26                	mv	t3,s1
   11efc:	0721                	addi	a4,a4,8
   11efe:	5e079363          	bnez	a5,124e4 <_vfprintf_r+0x10de>
   11f02:	0104f793          	andi	a5,s1,16
   11f06:	5c079f63          	bnez	a5,124e4 <_vfprintf_r+0x10de>
   11f0a:	7682                	ld	a3,32(sp)
   11f0c:	0404f793          	andi	a5,s1,64
   11f10:	4294                	lw	a3,0(a3)
   11f12:	1e078ae3          	beqz	a5,12906 <_vfprintf_r+0x1500>
   11f16:	16c2                	slli	a3,a3,0x30
   11f18:	92c1                	srli	a3,a3,0x30
   11f1a:	f03a                	sd	a4,32(sp)
   11f1c:	8826                	mv	a6,s1
   11f1e:	bf25                	j	11e56 <_vfprintf_r+0xa50>
   11f20:	7682                	ld	a3,32(sp)
   11f22:	0204f793          	andi	a5,s1,32
   11f26:	6298                	ld	a4,0(a3)
   11f28:	06a1                	addi	a3,a3,8
   11f2a:	f036                	sd	a3,32(sp)
   11f2c:	5a079863          	bnez	a5,124dc <_vfprintf_r+0x10d6>
   11f30:	0104f793          	andi	a5,s1,16
   11f34:	5a079463          	bnez	a5,124dc <_vfprintf_r+0x10d6>
   11f38:	0404f793          	andi	a5,s1,64
   11f3c:	50079ce3          	bnez	a5,12c54 <_vfprintf_r+0x184e>
   11f40:	2004ff13          	andi	t5,s1,512
   11f44:	67e2                	ld	a5,24(sp)
   11f46:	000f1463          	bnez	t5,11f4e <_vfprintf_r+0xb48>
   11f4a:	2e40106f          	j	1322e <_vfprintf_r+0x1e28>
   11f4e:	00f70023          	sb	a5,0(a4)
   11f52:	d6eff06f          	j	114c0 <_vfprintf_r+0xba>
   11f56:	000cc303          	lbu	t1,0(s9)
   11f5a:	06c00793          	li	a5,108
   11f5e:	6ef30163          	beq	t1,a5,12640 <_vfprintf_r+0x123a>
   11f62:	0104e493          	ori	s1,s1,16
   11f66:	dcaff06f          	j	11530 <_vfprintf_r+0x12a>
   11f6a:	410d06bb          	subw	a3,s10,a6
   11f6e:	e8d05b63          	blez	a3,11604 <_vfprintf_r+0x1fe>
   11f72:	42c1                	li	t0,16
   11f74:	562e                	lw	a2,232(sp)
   11f76:	00011497          	auipc	s1,0x11
   11f7a:	a7a48493          	addi	s1,s1,-1414 # 229f0 <zeroes.0>
   11f7e:	06d2d563          	bge	t0,a3,11fe8 <_vfprintf_r+0xbe2>
   11f82:	8c3e                	mv	s8,a5
   11f84:	874a                	mv	a4,s2
   11f86:	87de                	mv	a5,s7
   11f88:	439d                	li	t2,7
   11f8a:	8bda                	mv	s7,s6
   11f8c:	ecf2                	sd	t3,88(sp)
   11f8e:	fcc2                	sd	a6,120(sp)
   11f90:	8b46                	mv	s6,a7
   11f92:	00011917          	auipc	s2,0x11
   11f96:	a5e90913          	addi	s2,s2,-1442 # 229f0 <zeroes.0>
   11f9a:	84b6                	mv	s1,a3
   11f9c:	a021                	j	11fa4 <_vfprintf_r+0xb9e>
   11f9e:	34c1                	addiw	s1,s1,-16
   11fa0:	0292db63          	bge	t0,s1,11fd6 <_vfprintf_r+0xbd0>
   11fa4:	0741                	addi	a4,a4,16
   11fa6:	2605                	addiw	a2,a2,1
   11fa8:	0127b023          	sd	s2,0(a5)
   11fac:	0057b423          	sd	t0,8(a5)
   11fb0:	f9ba                	sd	a4,240(sp)
   11fb2:	d5b2                	sw	a2,232(sp)
   11fb4:	07c1                	addi	a5,a5,16
   11fb6:	fec3d4e3          	bge	t2,a2,11f9e <_vfprintf_r+0xb98>
   11fba:	65c2                	ld	a1,16(sp)
   11fbc:	6522                	ld	a0,8(sp)
   11fbe:	1190                	addi	a2,sp,224
   11fc0:	54b030ef          	jal	15d0a <__sprint_r>
   11fc4:	e53d                	bnez	a0,12032 <_vfprintf_r+0xc2c>
   11fc6:	42c1                	li	t0,16
   11fc8:	34c1                	addiw	s1,s1,-16
   11fca:	774e                	ld	a4,240(sp)
   11fcc:	562e                	lw	a2,232(sp)
   11fce:	87d2                	mv	a5,s4
   11fd0:	439d                	li	t2,7
   11fd2:	fc92c9e3          	blt	t0,s1,11fa4 <_vfprintf_r+0xb9e>
   11fd6:	6e66                	ld	t3,88(sp)
   11fd8:	7866                	ld	a6,120(sp)
   11fda:	86a6                	mv	a3,s1
   11fdc:	88da                	mv	a7,s6
   11fde:	84ca                	mv	s1,s2
   11fe0:	8b5e                	mv	s6,s7
   11fe2:	893a                	mv	s2,a4
   11fe4:	8bbe                	mv	s7,a5
   11fe6:	87e2                	mv	a5,s8
   11fe8:	9936                	add	s2,s2,a3
   11fea:	2605                	addiw	a2,a2,1
   11fec:	009bb023          	sd	s1,0(s7)
   11ff0:	00dbb423          	sd	a3,8(s7)
   11ff4:	f9ca                	sd	s2,240(sp)
   11ff6:	d5b2                	sw	a2,232(sp)
   11ff8:	471d                	li	a4,7
   11ffa:	0bc1                	addi	s7,s7,16
   11ffc:	e0c75463          	bge	a4,a2,11604 <_vfprintf_r+0x1fe>
   12000:	65c2                	ld	a1,16(sp)
   12002:	6522                	ld	a0,8(sp)
   12004:	1190                	addi	a2,sp,224
   12006:	e946                	sd	a7,144(sp)
   12008:	e142                	sd	a6,128(sp)
   1200a:	fcf2                	sd	t3,120(sp)
   1200c:	ecbe                	sd	a5,88(sp)
   1200e:	4fd030ef          	jal	15d0a <__sprint_r>
   12012:	e105                	bnez	a0,12032 <_vfprintf_r+0xc2c>
   12014:	794e                	ld	s2,240(sp)
   12016:	67e6                	ld	a5,88(sp)
   12018:	7e66                	ld	t3,120(sp)
   1201a:	680a                	ld	a6,128(sp)
   1201c:	68ca                	ld	a7,144(sp)
   1201e:	8bd2                	mv	s7,s4
   12020:	de4ff06f          	j	11604 <_vfprintf_r+0x1fe>
   12024:	65c2                	ld	a1,16(sp)
   12026:	6522                	ld	a0,8(sp)
   12028:	1190                	addi	a2,sp,224
   1202a:	4e1030ef          	jal	15d0a <__sprint_r>
   1202e:	e2050063          	beqz	a0,1164e <_vfprintf_r+0x248>
   12032:	64c2                	ld	s1,16(sp)
   12034:	75a2                	ld	a1,40(sp)
   12036:	c581                	beqz	a1,1203e <_vfprintf_r+0xc38>
   12038:	6522                	ld	a0,8(sp)
   1203a:	b0dfe0ef          	jal	10b46 <_free_r>
   1203e:	0104d783          	lhu	a5,16(s1)
   12042:	23013903          	ld	s2,560(sp)
   12046:	22813983          	ld	s3,552(sp)
   1204a:	0407f793          	andi	a5,a5,64
   1204e:	22013a03          	ld	s4,544(sp)
   12052:	21813a83          	ld	s5,536(sp)
   12056:	20813b83          	ld	s7,520(sp)
   1205a:	20013c03          	ld	s8,512(sp)
   1205e:	7cfe                	ld	s9,504(sp)
   12060:	7d5e                	ld	s10,496(sp)
   12062:	7dbe                	ld	s11,488(sp)
   12064:	e4079963          	bnez	a5,116b6 <_vfprintf_r+0x2b0>
   12068:	24813083          	ld	ra,584(sp)
   1206c:	24013403          	ld	s0,576(sp)
   12070:	6562                	ld	a0,24(sp)
   12072:	23813483          	ld	s1,568(sp)
   12076:	21013b03          	ld	s6,528(sp)
   1207a:	25010113          	addi	sp,sp,592
   1207e:	8082                	ret
   12080:	410d073b          	subw	a4,s10,a6
   12084:	e082                	sd	zero,64(sp)
   12086:	fc02                	sd	zero,56(sp)
   12088:	2ce04763          	bgtz	a4,12356 <_vfprintf_r+0xf50>
   1208c:	4b01                	li	s6,0
   1208e:	d4028a63          	beqz	t0,115e2 <_vfprintf_r+0x1dc>
   12092:	4289                	li	t0,2
   12094:	d2cff06f          	j	115c0 <_vfprintf_r+0x1ba>
   12098:	5aae                	lw	s5,232(sp)
   1209a:	7642                	ld	a2,48(sp)
   1209c:	4685                	li	a3,1
   1209e:	2a85                	addiw	s5,s5,1
   120a0:	9936                	add	s2,s2,a3
   120a2:	8756                	mv	a4,s5
   120a4:	010b8b13          	addi	s6,s7,16
   120a8:	36c6d763          	bge	a3,a2,12416 <_vfprintf_r+0x1010>
   120ac:	4685                	li	a3,1
   120ae:	00dbb423          	sd	a3,8(s7)
   120b2:	00fbb023          	sd	a5,0(s7)
   120b6:	f9ca                	sd	s2,240(sp)
   120b8:	d5ba                	sw	a4,232(sp)
   120ba:	469d                	li	a3,7
   120bc:	6ae6cd63          	blt	a3,a4,12776 <_vfprintf_r+0x1370>
   120c0:	6726                	ld	a4,72(sp)
   120c2:	66c6                	ld	a3,80(sp)
   120c4:	2a85                	addiw	s5,s5,1
   120c6:	993a                	add	s2,s2,a4
   120c8:	00eb3423          	sd	a4,8(s6)
   120cc:	00db3023          	sd	a3,0(s6)
   120d0:	f9ca                	sd	s2,240(sp)
   120d2:	d5d6                	sw	s5,232(sp)
   120d4:	471d                	li	a4,7
   120d6:	0b41                	addi	s6,s6,16
   120d8:	67574e63          	blt	a4,s5,12754 <_vfprintf_r+0x134e>
   120dc:	ecbe                	sd	a5,88(sp)
   120de:	654e                	ld	a0,208(sp)
   120e0:	77c2                	ld	a5,48(sp)
   120e2:	65ee                	ld	a1,216(sp)
   120e4:	4601                	li	a2,0
   120e6:	4681                	li	a3,0
   120e8:	e0c2                	sd	a6,64(sp)
   120ea:	fc72                	sd	t3,56(sp)
   120ec:	fff78b9b          	addiw	s7,a5,-1
   120f0:	2800f0ef          	jal	21370 <__eqtf2>
   120f4:	7e62                	ld	t3,56(sp)
   120f6:	6806                	ld	a6,64(sp)
   120f8:	34050b63          	beqz	a0,1244e <_vfprintf_r+0x1048>
   120fc:	67e6                	ld	a5,88(sp)
   120fe:	2a85                	addiw	s5,s5,1
   12100:	995e                	add	s2,s2,s7
   12102:	0785                	addi	a5,a5,1
   12104:	d5d6                	sw	s5,232(sp)
   12106:	f9ca                	sd	s2,240(sp)
   12108:	00fb3023          	sd	a5,0(s6)
   1210c:	017b3423          	sd	s7,8(s6)
   12110:	479d                	li	a5,7
   12112:	4f57c563          	blt	a5,s5,125fc <_vfprintf_r+0x11f6>
   12116:	0b41                	addi	s6,s6,16
   12118:	7706                	ld	a4,96(sp)
   1211a:	193c                	addi	a5,sp,184
   1211c:	2a85                	addiw	s5,s5,1
   1211e:	993a                	add	s2,s2,a4
   12120:	00fb3023          	sd	a5,0(s6)
   12124:	f9ca                	sd	s2,240(sp)
   12126:	d5d6                	sw	s5,232(sp)
   12128:	00eb3423          	sd	a4,8(s6)
   1212c:	479d                	li	a5,7
   1212e:	010b0b93          	addi	s7,s6,16
   12132:	cf57dd63          	bge	a5,s5,1162c <_vfprintf_r+0x226>
   12136:	65c2                	ld	a1,16(sp)
   12138:	6522                	ld	a0,8(sp)
   1213a:	1190                	addi	a2,sp,224
   1213c:	e0c2                	sd	a6,64(sp)
   1213e:	fc72                	sd	t3,56(sp)
   12140:	3cb030ef          	jal	15d0a <__sprint_r>
   12144:	ee0517e3          	bnez	a0,12032 <_vfprintf_r+0xc2c>
   12148:	794e                	ld	s2,240(sp)
   1214a:	6806                	ld	a6,64(sp)
   1214c:	7e62                	ld	t3,56(sp)
   1214e:	8bd2                	mv	s7,s4
   12150:	cdcff06f          	j	1162c <_vfprintf_r+0x226>
   12154:	65c2                	ld	a1,16(sp)
   12156:	6522                	ld	a0,8(sp)
   12158:	1190                	addi	a2,sp,224
   1215a:	e946                	sd	a7,144(sp)
   1215c:	e142                	sd	a6,128(sp)
   1215e:	fcf2                	sd	t3,120(sp)
   12160:	ecbe                	sd	a5,88(sp)
   12162:	3a9030ef          	jal	15d0a <__sprint_r>
   12166:	ec0516e3          	bnez	a0,12032 <_vfprintf_r+0xc2c>
   1216a:	794e                	ld	s2,240(sp)
   1216c:	68ca                	ld	a7,144(sp)
   1216e:	680a                	ld	a6,128(sp)
   12170:	7e66                	ld	t3,120(sp)
   12172:	67e6                	ld	a5,88(sp)
   12174:	8bd2                	mv	s7,s4
   12176:	c86ff06f          	j	115fc <_vfprintf_r+0x1f6>
   1217a:	4b41                	li	s6,16
   1217c:	57ae                	lw	a5,232(sp)
   1217e:	00011f97          	auipc	t6,0x11
   12182:	882f8f93          	addi	t6,t6,-1918 # 22a00 <blanks.1>
   12186:	055b5963          	bge	s6,s5,121d8 <_vfprintf_r+0xdd2>
   1218a:	874a                	mv	a4,s2
   1218c:	6c42                	ld	s8,16(sp)
   1218e:	4d9d                	li	s11,7
   12190:	8942                	mv	s2,a6
   12192:	00011497          	auipc	s1,0x11
   12196:	86e48493          	addi	s1,s1,-1938 # 22a00 <blanks.1>
   1219a:	a021                	j	121a2 <_vfprintf_r+0xd9c>
   1219c:	3ac1                	addiw	s5,s5,-16
   1219e:	035b5a63          	bge	s6,s5,121d2 <_vfprintf_r+0xdcc>
   121a2:	0741                	addi	a4,a4,16
   121a4:	2785                	addiw	a5,a5,1
   121a6:	009bb023          	sd	s1,0(s7)
   121aa:	016bb423          	sd	s6,8(s7)
   121ae:	f9ba                	sd	a4,240(sp)
   121b0:	d5be                	sw	a5,232(sp)
   121b2:	0bc1                	addi	s7,s7,16
   121b4:	fefdd4e3          	bge	s11,a5,1219c <_vfprintf_r+0xd96>
   121b8:	6522                	ld	a0,8(sp)
   121ba:	1190                	addi	a2,sp,224
   121bc:	85e2                	mv	a1,s8
   121be:	34d030ef          	jal	15d0a <__sprint_r>
   121c2:	66051f63          	bnez	a0,12840 <_vfprintf_r+0x143a>
   121c6:	3ac1                	addiw	s5,s5,-16
   121c8:	774e                	ld	a4,240(sp)
   121ca:	57ae                	lw	a5,232(sp)
   121cc:	8bd2                	mv	s7,s4
   121ce:	fd5b4ae3          	blt	s6,s5,121a2 <_vfprintf_r+0xd9c>
   121d2:	884a                	mv	a6,s2
   121d4:	8fa6                	mv	t6,s1
   121d6:	893a                	mv	s2,a4
   121d8:	9956                	add	s2,s2,s5
   121da:	2785                	addiw	a5,a5,1
   121dc:	f9ca                	sd	s2,240(sp)
   121de:	d5be                	sw	a5,232(sp)
   121e0:	01fbb023          	sd	t6,0(s7)
   121e4:	015bb423          	sd	s5,8(s7)
   121e8:	471d                	li	a4,7
   121ea:	c4f75963          	bge	a4,a5,1163c <_vfprintf_r+0x236>
   121ee:	65c2                	ld	a1,16(sp)
   121f0:	6522                	ld	a0,8(sp)
   121f2:	1190                	addi	a2,sp,224
   121f4:	fc42                	sd	a6,56(sp)
   121f6:	315030ef          	jal	15d0a <__sprint_r>
   121fa:	e2051ce3          	bnez	a0,12032 <_vfprintf_r+0xc2c>
   121fe:	794e                	ld	s2,240(sp)
   12200:	7862                	ld	a6,56(sp)
   12202:	c3aff06f          	j	1163c <_vfprintf_r+0x236>
   12206:	15c10893          	addi	a7,sp,348
   1220a:	87c6                	mv	a5,a7
   1220c:	0076f713          	andi	a4,a3,7
   12210:	863e                	mv	a2,a5
   12212:	03070713          	addi	a4,a4,48
   12216:	828d                	srli	a3,a3,0x3
   12218:	fee78fa3          	sb	a4,-1(a5)
   1221c:	17fd                	addi	a5,a5,-1
   1221e:	f6fd                	bnez	a3,1220c <_vfprintf_r+0xe06>
   12220:	fd070713          	addi	a4,a4,-48
   12224:	03000693          	li	a3,48
   12228:	c709                	beqz	a4,12232 <_vfprintf_r+0xe2c>
   1222a:	001e7713          	andi	a4,t3,1
   1222e:	2c071763          	bnez	a4,124fc <_vfprintf_r+0x10f6>
   12232:	40f888bb          	subw	a7,a7,a5
   12236:	000a881b          	sext.w	a6,s5
   1223a:	291ac963          	blt	s5,a7,124cc <_vfprintf_r+0x10c6>
   1223e:	f402                	sd	zero,40(sp)
   12240:	e082                	sd	zero,64(sp)
   12242:	fc02                	sd	zero,56(sp)
   12244:	4b01                	li	s6,0
   12246:	b64ff06f          	j	115aa <_vfprintf_r+0x1a4>
   1224a:	564a                	lw	a2,176(sp)
   1224c:	eac05963          	blez	a2,118fe <_vfprintf_r+0x4f8>
   12250:	76c2                	ld	a3,48(sp)
   12252:	875a                	mv	a4,s6
   12254:	3766ce63          	blt	a3,s6,125d0 <_vfprintf_r+0x11ca>
   12258:	0007049b          	sext.w	s1,a4
   1225c:	00905f63          	blez	s1,1227a <_vfprintf_r+0xe74>
   12260:	572e                	lw	a4,232(sp)
   12262:	9926                	add	s2,s2,s1
   12264:	00fbb023          	sd	a5,0(s7)
   12268:	2705                	addiw	a4,a4,1
   1226a:	009bb423          	sd	s1,8(s7)
   1226e:	f9ca                	sd	s2,240(sp)
   12270:	d5ba                	sw	a4,232(sp)
   12272:	469d                	li	a3,7
   12274:	0bc1                	addi	s7,s7,16
   12276:	10e6c6e3          	blt	a3,a4,12b82 <_vfprintf_r+0x177c>
   1227a:	8aa6                	mv	s5,s1
   1227c:	4204c063          	bltz	s1,1269c <_vfprintf_r+0x1296>
   12280:	415b0abb          	subw	s5,s6,s5
   12284:	45504663          	bgtz	s5,126d0 <_vfprintf_r+0x12ca>
   12288:	400e7713          	andi	a4,t3,1024
   1228c:	016784b3          	add	s1,a5,s6
   12290:	78071263          	bnez	a4,12a14 <_vfprintf_r+0x160e>
   12294:	5aca                	lw	s5,176(sp)
   12296:	76c2                	ld	a3,48(sp)
   12298:	00dac663          	blt	s5,a3,122a4 <_vfprintf_r+0xe9e>
   1229c:	001e7713          	andi	a4,t3,1
   122a0:	140708e3          	beqz	a4,12bf0 <_vfprintf_r+0x17ea>
   122a4:	66a6                	ld	a3,72(sp)
   122a6:	572e                	lw	a4,232(sp)
   122a8:	6646                	ld	a2,80(sp)
   122aa:	9936                	add	s2,s2,a3
   122ac:	2705                	addiw	a4,a4,1
   122ae:	00dbb423          	sd	a3,8(s7)
   122b2:	00cbb023          	sd	a2,0(s7)
   122b6:	f9ca                	sd	s2,240(sp)
   122b8:	d5ba                	sw	a4,232(sp)
   122ba:	469d                	li	a3,7
   122bc:	0bc1                	addi	s7,s7,16
   122be:	58e6c3e3          	blt	a3,a4,13044 <_vfprintf_r+0x1c3e>
   122c2:	7742                	ld	a4,48(sp)
   122c4:	97ba                	add	a5,a5,a4
   122c6:	40978b33          	sub	s6,a5,s1
   122ca:	41570abb          	subw	s5,a4,s5
   122ce:	000b079b          	sext.w	a5,s6
   122d2:	00fad363          	bge	s5,a5,122d8 <_vfprintf_r+0xed2>
   122d6:	8b56                	mv	s6,s5
   122d8:	2b01                	sext.w	s6,s6
   122da:	01605f63          	blez	s6,122f8 <_vfprintf_r+0xef2>
   122de:	57ae                	lw	a5,232(sp)
   122e0:	995a                	add	s2,s2,s6
   122e2:	009bb023          	sd	s1,0(s7)
   122e6:	2785                	addiw	a5,a5,1
   122e8:	016bb423          	sd	s6,8(s7)
   122ec:	f9ca                	sd	s2,240(sp)
   122ee:	d5be                	sw	a5,232(sp)
   122f0:	471d                	li	a4,7
   122f2:	0bc1                	addi	s7,s7,16
   122f4:	5ef74ee3          	blt	a4,a5,130f0 <_vfprintf_r+0x1cea>
   122f8:	87da                	mv	a5,s6
   122fa:	000b5363          	bgez	s6,12300 <_vfprintf_r+0xefa>
   122fe:	4781                	li	a5,0
   12300:	40fa8abb          	subw	s5,s5,a5
   12304:	b3505463          	blez	s5,1162c <_vfprintf_r+0x226>
   12308:	4b41                	li	s6,16
   1230a:	57ae                	lw	a5,232(sp)
   1230c:	455b5ce3          	bge	s6,s5,12f64 <_vfprintf_r+0x1b5e>
   12310:	874a                	mv	a4,s2
   12312:	84d6                	mv	s1,s5
   12314:	4d9d                	li	s11,7
   12316:	8972                	mv	s2,t3
   12318:	00010c17          	auipc	s8,0x10
   1231c:	6d8c0c13          	addi	s8,s8,1752 # 229f0 <zeroes.0>
   12320:	8ac2                	mv	s5,a6
   12322:	a021                	j	1232a <_vfprintf_r+0xf24>
   12324:	34c1                	addiw	s1,s1,-16
   12326:	529b5063          	bge	s6,s1,12846 <_vfprintf_r+0x1440>
   1232a:	0741                	addi	a4,a4,16
   1232c:	2785                	addiw	a5,a5,1
   1232e:	018bb023          	sd	s8,0(s7)
   12332:	016bb423          	sd	s6,8(s7)
   12336:	f9ba                	sd	a4,240(sp)
   12338:	d5be                	sw	a5,232(sp)
   1233a:	0bc1                	addi	s7,s7,16
   1233c:	fefdd4e3          	bge	s11,a5,12324 <_vfprintf_r+0xf1e>
   12340:	65c2                	ld	a1,16(sp)
   12342:	6522                	ld	a0,8(sp)
   12344:	1190                	addi	a2,sp,224
   12346:	1c5030ef          	jal	15d0a <__sprint_r>
   1234a:	ce0514e3          	bnez	a0,12032 <_vfprintf_r+0xc2c>
   1234e:	774e                	ld	a4,240(sp)
   12350:	57ae                	lw	a5,232(sp)
   12352:	8bd2                	mv	s7,s4
   12354:	bfc1                	j	12324 <_vfprintf_r+0xf1e>
   12356:	4289                	li	t0,2
   12358:	4941                	li	s2,16
   1235a:	00010f97          	auipc	t6,0x10
   1235e:	6a6f8f93          	addi	t6,t6,1702 # 22a00 <blanks.1>
   12362:	06e95663          	bge	s2,a4,123ce <_vfprintf_r+0xfc8>
   12366:	fca6                	sd	s1,120(sp)
   12368:	e13e                	sd	a5,128(sp)
   1236a:	ed56                	sd	s5,152(sp)
   1236c:	87de                	mv	a5,s7
   1236e:	4b1d                	li	s6,7
   12370:	ec96                	sd	t0,88(sp)
   12372:	84ba                	mv	s1,a4
   12374:	e972                	sd	t3,144(sp)
   12376:	8c42                	mv	s8,a6
   12378:	8bc6                	mv	s7,a7
   1237a:	00010a97          	auipc	s5,0x10
   1237e:	686a8a93          	addi	s5,s5,1670 # 22a00 <blanks.1>
   12382:	a021                	j	1238a <_vfprintf_r+0xf84>
   12384:	34c1                	addiw	s1,s1,-16
   12386:	02995a63          	bge	s2,s1,123ba <_vfprintf_r+0xfb4>
   1238a:	05c1                	addi	a1,a1,16
   1238c:	2605                	addiw	a2,a2,1
   1238e:	0157b023          	sd	s5,0(a5)
   12392:	0127b423          	sd	s2,8(a5)
   12396:	f9ae                	sd	a1,240(sp)
   12398:	d5b2                	sw	a2,232(sp)
   1239a:	07c1                	addi	a5,a5,16
   1239c:	fecb54e3          	bge	s6,a2,12384 <_vfprintf_r+0xf7e>
   123a0:	65c2                	ld	a1,16(sp)
   123a2:	6522                	ld	a0,8(sp)
   123a4:	1190                	addi	a2,sp,224
   123a6:	165030ef          	jal	15d0a <__sprint_r>
   123aa:	c80514e3          	bnez	a0,12032 <_vfprintf_r+0xc2c>
   123ae:	34c1                	addiw	s1,s1,-16
   123b0:	75ce                	ld	a1,240(sp)
   123b2:	562e                	lw	a2,232(sp)
   123b4:	87d2                	mv	a5,s4
   123b6:	fc994ae3          	blt	s2,s1,1238a <_vfprintf_r+0xf84>
   123ba:	8726                	mv	a4,s1
   123bc:	88de                	mv	a7,s7
   123be:	8fd6                	mv	t6,s5
   123c0:	8bbe                	mv	s7,a5
   123c2:	62e6                	ld	t0,88(sp)
   123c4:	74e6                	ld	s1,120(sp)
   123c6:	6e4a                	ld	t3,144(sp)
   123c8:	678a                	ld	a5,128(sp)
   123ca:	6aea                	ld	s5,152(sp)
   123cc:	8862                	mv	a6,s8
   123ce:	00b70933          	add	s2,a4,a1
   123d2:	0016051b          	addiw	a0,a2,1
   123d6:	00ebb423          	sd	a4,8(s7)
   123da:	f9ca                	sd	s2,240(sp)
   123dc:	d5aa                	sw	a0,232(sp)
   123de:	01fbb023          	sd	t6,0(s7)
   123e2:	471d                	li	a4,7
   123e4:	3ca74063          	blt	a4,a0,127a4 <_vfprintf_r+0x139e>
   123e8:	0a714703          	lbu	a4,167(sp)
   123ec:	0bc1                	addi	s7,s7,16
   123ee:	8b26                	mv	s6,s1
   123f0:	eb79                	bnez	a4,124c6 <_vfprintf_r+0x10c0>
   123f2:	a0028963          	beqz	t0,11604 <_vfprintf_r+0x1fe>
   123f6:	4481                	li	s1,0
   123f8:	9eaff06f          	j	115e2 <_vfprintf_r+0x1dc>
   123fc:	562e                	lw	a2,232(sp)
   123fe:	84da                	mv	s1,s6
   12400:	4281                	li	t0,0
   12402:	bf99                	j	12358 <_vfprintf_r+0xf52>
   12404:	4881                	li	a7,0
   12406:	4a81                	li	s5,0
   12408:	e082                	sd	zero,64(sp)
   1240a:	fc02                	sd	zero,56(sp)
   1240c:	4b01                	li	s6,0
   1240e:	f402                	sd	zero,40(sp)
   12410:	0afc                	addi	a5,sp,348
   12412:	998ff06f          	j	115aa <_vfprintf_r+0x1a4>
   12416:	00de7633          	and	a2,t3,a3
   1241a:	c80619e3          	bnez	a2,120ac <_vfprintf_r+0xca6>
   1241e:	00fbb023          	sd	a5,0(s7)
   12422:	00dbb423          	sd	a3,8(s7)
   12426:	f9ca                	sd	s2,240(sp)
   12428:	d5d6                	sw	s5,232(sp)
   1242a:	479d                	li	a5,7
   1242c:	cf57d6e3          	bge	a5,s5,12118 <_vfprintf_r+0xd12>
   12430:	65c2                	ld	a1,16(sp)
   12432:	6522                	ld	a0,8(sp)
   12434:	1190                	addi	a2,sp,224
   12436:	e0c2                	sd	a6,64(sp)
   12438:	fc72                	sd	t3,56(sp)
   1243a:	0d1030ef          	jal	15d0a <__sprint_r>
   1243e:	be051ae3          	bnez	a0,12032 <_vfprintf_r+0xc2c>
   12442:	794e                	ld	s2,240(sp)
   12444:	5aae                	lw	s5,232(sp)
   12446:	6806                	ld	a6,64(sp)
   12448:	7e62                	ld	t3,56(sp)
   1244a:	8b52                	mv	s6,s4
   1244c:	b1f1                	j	12118 <_vfprintf_r+0xd12>
   1244e:	7742                	ld	a4,48(sp)
   12450:	4785                	li	a5,1
   12452:	cce7d3e3          	bge	a5,a4,12118 <_vfprintf_r+0xd12>
   12456:	47c5                	li	a5,17
   12458:	00010497          	auipc	s1,0x10
   1245c:	59848493          	addi	s1,s1,1432 # 229f0 <zeroes.0>
   12460:	18e7d363          	bge	a5,a4,125e6 <_vfprintf_r+0x11e0>
   12464:	874a                	mv	a4,s2
   12466:	84de                	mv	s1,s7
   12468:	4dc1                	li	s11,16
   1246a:	479d                	li	a5,7
   1246c:	8972                	mv	s2,t3
   1246e:	00010c17          	auipc	s8,0x10
   12472:	582c0c13          	addi	s8,s8,1410 # 229f0 <zeroes.0>
   12476:	8bc2                	mv	s7,a6
   12478:	a021                	j	12480 <_vfprintf_r+0x107a>
   1247a:	34c1                	addiw	s1,s1,-16
   1247c:	169dd063          	bge	s11,s1,125dc <_vfprintf_r+0x11d6>
   12480:	0741                	addi	a4,a4,16
   12482:	2a85                	addiw	s5,s5,1
   12484:	018b3023          	sd	s8,0(s6)
   12488:	01bb3423          	sd	s11,8(s6)
   1248c:	f9ba                	sd	a4,240(sp)
   1248e:	d5d6                	sw	s5,232(sp)
   12490:	0b41                	addi	s6,s6,16
   12492:	ff57d4e3          	bge	a5,s5,1247a <_vfprintf_r+0x1074>
   12496:	65c2                	ld	a1,16(sp)
   12498:	6522                	ld	a0,8(sp)
   1249a:	1190                	addi	a2,sp,224
   1249c:	06f030ef          	jal	15d0a <__sprint_r>
   124a0:	b80519e3          	bnez	a0,12032 <_vfprintf_r+0xc2c>
   124a4:	774e                	ld	a4,240(sp)
   124a6:	5aae                	lw	s5,232(sp)
   124a8:	8b52                	mv	s6,s4
   124aa:	479d                	li	a5,7
   124ac:	b7f9                	j	1247a <_vfprintf_r+0x1074>
   124ae:	001e7793          	andi	a5,t3,1
   124b2:	96078d63          	beqz	a5,1162c <_vfprintf_r+0x226>
   124b6:	e60ff06f          	j	11b16 <_vfprintf_r+0x710>
   124ba:	07a1                	addi	a5,a5,8
   124bc:	000cc303          	lbu	t1,0(s9)
   124c0:	f03e                	sd	a5,32(sp)
   124c2:	86eff06f          	j	11530 <_vfprintf_r+0x12a>
   124c6:	4481                	li	s1,0
   124c8:	8f8ff06f          	j	115c0 <_vfprintf_r+0x1ba>
   124cc:	0008881b          	sext.w	a6,a7
   124d0:	f402                	sd	zero,40(sp)
   124d2:	e082                	sd	zero,64(sp)
   124d4:	fc02                	sd	zero,56(sp)
   124d6:	4b01                	li	s6,0
   124d8:	8d2ff06f          	j	115aa <_vfprintf_r+0x1a4>
   124dc:	67e2                	ld	a5,24(sp)
   124de:	e31c                	sd	a5,0(a4)
   124e0:	fe1fe06f          	j	114c0 <_vfprintf_r+0xba>
   124e4:	8872                	mv	a6,t3
   124e6:	b2ad                	j	11e50 <_vfprintf_r+0xa4a>
   124e8:	7782                	ld	a5,32(sp)
   124ea:	07bd                	addi	a5,a5,15
   124ec:	9bc1                	andi	a5,a5,-16
   124ee:	01078713          	addi	a4,a5,16
   124f2:	6388                	ld	a0,0(a5)
   124f4:	678c                	ld	a1,8(a5)
   124f6:	f03a                	sd	a4,32(sp)
   124f8:	9e2ff06f          	j	116da <_vfprintf_r+0x2d4>
   124fc:	1679                	addi	a2,a2,-2
   124fe:	40c888bb          	subw	a7,a7,a2
   12502:	fed78fa3          	sb	a3,-1(a5)
   12506:	000a881b          	sext.w	a6,s5
   1250a:	011ad463          	bge	s5,a7,12512 <_vfprintf_r+0x110c>
   1250e:	0008881b          	sext.w	a6,a7
   12512:	87b2                	mv	a5,a2
   12514:	f402                	sd	zero,40(sp)
   12516:	e082                	sd	zero,64(sp)
   12518:	fc02                	sd	zero,56(sp)
   1251a:	4b01                	li	s6,0
   1251c:	88eff06f          	j	115aa <_vfprintf_r+0x1a4>
   12520:	0104f793          	andi	a5,s1,16
   12524:	3e079ae3          	bnez	a5,13118 <_vfprintf_r+0x1d12>
   12528:	7682                	ld	a3,32(sp)
   1252a:	0404f793          	andi	a5,s1,64
   1252e:	0006a903          	lw	s2,0(a3)
   12532:	00868713          	addi	a4,a3,8
   12536:	1e078c63          	beqz	a5,1272e <_vfprintf_r+0x1328>
   1253a:	1942                	slli	s2,s2,0x30
   1253c:	0a0103a3          	sb	zero,167(sp)
   12540:	03095913          	srli	s2,s2,0x30
   12544:	1e0acf63          	bltz	s5,12742 <_vfprintf_r+0x133c>
   12548:	012aefb3          	or	t6,s5,s2
   1254c:	000f8b1b          	sext.w	s6,t6
   12550:	f03a                	sd	a4,32(sp)
   12552:	f7fe7e13          	andi	t3,t3,-129
   12556:	ee0b1863          	bnez	s6,11c46 <_vfprintf_r+0x840>
   1255a:	b269                	j	11ee4 <_vfprintf_r+0xade>
   1255c:	7782                	ld	a5,32(sp)
   1255e:	00878713          	addi	a4,a5,8
   12562:	7782                	ld	a5,32(sp)
   12564:	8e7a                	mv	t3,t5
   12566:	f03a                	sd	a4,32(sp)
   12568:	639c                	ld	a5,0(a5)
   1256a:	893e                	mv	s2,a5
   1256c:	e54ff06f          	j	11bc0 <_vfprintf_r+0x7ba>
   12570:	0a714283          	lbu	t0,167(sp)
   12574:	4805                	li	a6,1
   12576:	4b01                	li	s6,0
   12578:	4885                	li	a7,1
   1257a:	15b10793          	addi	a5,sp,347
   1257e:	eeaff06f          	j	11c68 <_vfprintf_r+0x862>
   12582:	f03e                	sd	a5,32(sp)
   12584:	8e7a                	mv	t3,t5
   12586:	ec0ff06f          	j	11c46 <_vfprintf_r+0x840>
   1258a:	0024ee13          	ori	t3,s1,2
   1258e:	f02e                	sd	a1,32(sp)
   12590:	4b09                	li	s6,2
   12592:	4281                	li	t0,0
   12594:	00010617          	auipc	a2,0x10
   12598:	06c60613          	addi	a2,a2,108 # 22600 <__clzdi2+0x64>
   1259c:	07800d93          	li	s11,120
   125a0:	15c10893          	addi	a7,sp,348
   125a4:	87c6                	mv	a5,a7
   125a6:	00f77693          	andi	a3,a4,15
   125aa:	96b2                	add	a3,a3,a2
   125ac:	0006c683          	lbu	a3,0(a3)
   125b0:	8311                	srli	a4,a4,0x4
   125b2:	17fd                	addi	a5,a5,-1
   125b4:	00d78023          	sb	a3,0(a5)
   125b8:	f77d                	bnez	a4,125a6 <_vfprintf_r+0x11a0>
   125ba:	40f888bb          	subw	a7,a7,a5
   125be:	000a881b          	sext.w	a6,s5
   125c2:	eb1ad363          	bge	s5,a7,11c68 <_vfprintf_r+0x862>
   125c6:	0008881b          	sext.w	a6,a7
   125ca:	f402                	sd	zero,40(sp)
   125cc:	e9eff06f          	j	11c6a <_vfprintf_r+0x864>
   125d0:	8736                	mv	a4,a3
   125d2:	0007049b          	sext.w	s1,a4
   125d6:	c89045e3          	bgtz	s1,12260 <_vfprintf_r+0xe5a>
   125da:	b145                	j	1227a <_vfprintf_r+0xe74>
   125dc:	8e4a                	mv	t3,s2
   125de:	885e                	mv	a6,s7
   125e0:	893a                	mv	s2,a4
   125e2:	8ba6                	mv	s7,s1
   125e4:	84e2                	mv	s1,s8
   125e6:	995e                	add	s2,s2,s7
   125e8:	2a85                	addiw	s5,s5,1
   125ea:	f9ca                	sd	s2,240(sp)
   125ec:	d5d6                	sw	s5,232(sp)
   125ee:	009b3023          	sd	s1,0(s6)
   125f2:	017b3423          	sd	s7,8(s6)
   125f6:	479d                	li	a5,7
   125f8:	b157dfe3          	bge	a5,s5,12116 <_vfprintf_r+0xd10>
   125fc:	65c2                	ld	a1,16(sp)
   125fe:	6522                	ld	a0,8(sp)
   12600:	1190                	addi	a2,sp,224
   12602:	e0c2                	sd	a6,64(sp)
   12604:	fc72                	sd	t3,56(sp)
   12606:	704030ef          	jal	15d0a <__sprint_r>
   1260a:	a20514e3          	bnez	a0,12032 <_vfprintf_r+0xc2c>
   1260e:	794e                	ld	s2,240(sp)
   12610:	5aae                	lw	s5,232(sp)
   12612:	7e62                	ld	t3,56(sp)
   12614:	6806                	ld	a6,64(sp)
   12616:	8b52                	mv	s6,s4
   12618:	b601                	j	12118 <_vfprintf_r+0xd12>
   1261a:	5afd                	li	s5,-1
   1261c:	8cb2                	mv	s9,a2
   1261e:	f19fe06f          	j	11536 <_vfprintf_r+0x130>
   12622:	65c2                	ld	a1,16(sp)
   12624:	6522                	ld	a0,8(sp)
   12626:	1190                	addi	a2,sp,224
   12628:	e0c2                	sd	a6,64(sp)
   1262a:	fc72                	sd	t3,56(sp)
   1262c:	6de030ef          	jal	15d0a <__sprint_r>
   12630:	a00511e3          	bnez	a0,12032 <_vfprintf_r+0xc2c>
   12634:	794e                	ld	s2,240(sp)
   12636:	6806                	ld	a6,64(sp)
   12638:	7e62                	ld	t3,56(sp)
   1263a:	8bd2                	mv	s7,s4
   1263c:	cf8ff06f          	j	11b34 <_vfprintf_r+0x72e>
   12640:	001cc303          	lbu	t1,1(s9)
   12644:	0204e493          	ori	s1,s1,32
   12648:	0c85                	addi	s9,s9,1
   1264a:	ee7fe06f          	j	11530 <_vfprintf_r+0x12a>
   1264e:	001cc303          	lbu	t1,1(s9)
   12652:	2004e493          	ori	s1,s1,512
   12656:	0c85                	addi	s9,s9,1
   12658:	ed9fe06f          	j	11530 <_vfprintf_r+0x12a>
   1265c:	8e26                	mv	t3,s1
   1265e:	00010617          	auipc	a2,0x10
   12662:	fba60613          	addi	a2,a2,-70 # 22618 <__clzdi2+0x7c>
   12666:	7702                	ld	a4,32(sp)
   12668:	020e7793          	andi	a5,t3,32
   1266c:	00870593          	addi	a1,a4,8
   12670:	cfe1                	beqz	a5,12748 <_vfprintf_r+0x1342>
   12672:	6318                	ld	a4,0(a4)
   12674:	001e7793          	andi	a5,t3,1
   12678:	00e036b3          	snez	a3,a4
   1267c:	c399                	beqz	a5,12682 <_vfprintf_r+0x127c>
   1267e:	16069863          	bnez	a3,127ee <_vfprintf_r+0x13e8>
   12682:	0a0103a3          	sb	zero,167(sp)
   12686:	100ac963          	bltz	s5,12798 <_vfprintf_r+0x1392>
   1268a:	b7fe7e13          	andi	t3,t3,-1153
   1268e:	180a9863          	bnez	s5,1281e <_vfprintf_r+0x1418>
   12692:	18069663          	bnez	a3,1281e <_vfprintf_r+0x1418>
   12696:	f02e                	sd	a1,32(sp)
   12698:	4b01                	li	s6,0
   1269a:	b0a9                	j	11ee4 <_vfprintf_r+0xade>
   1269c:	4a81                	li	s5,0
   1269e:	b6cd                	j	12280 <_vfprintf_r+0xe7a>
   126a0:	8e26                	mv	t3,s1
   126a2:	00010617          	auipc	a2,0x10
   126a6:	f5e60613          	addi	a2,a2,-162 # 22600 <__clzdi2+0x64>
   126aa:	bf75                	j	12666 <_vfprintf_r+0x1260>
   126ac:	4799                	li	a5,6
   126ae:	000a881b          	sext.w	a6,s5
   126b2:	4d57e563          	bltu	a5,s5,12b7c <_vfprintf_r+0x1776>
   126b6:	f026                	sd	s1,32(sp)
   126b8:	88c2                	mv	a7,a6
   126ba:	f402                	sd	zero,40(sp)
   126bc:	4a81                	li	s5,0
   126be:	e082                	sd	zero,64(sp)
   126c0:	fc02                	sd	zero,56(sp)
   126c2:	4b01                	li	s6,0
   126c4:	00010797          	auipc	a5,0x10
   126c8:	f6c78793          	addi	a5,a5,-148 # 22630 <__clzdi2+0x94>
   126cc:	edffe06f          	j	115aa <_vfprintf_r+0x1a4>
   126d0:	48c1                	li	a7,16
   126d2:	56ae                	lw	a3,232(sp)
   126d4:	00010497          	auipc	s1,0x10
   126d8:	31c48493          	addi	s1,s1,796 # 229f0 <zeroes.0>
   126dc:	2f58d863          	bge	a7,s5,129cc <_vfprintf_r+0x15c6>
   126e0:	874a                	mv	a4,s2
   126e2:	84d6                	mv	s1,s5
   126e4:	893e                	mv	s2,a5
   126e6:	4d9d                	li	s11,7
   126e8:	87de                	mv	a5,s7
   126ea:	00010c17          	auipc	s8,0x10
   126ee:	306c0c13          	addi	s8,s8,774 # 229f0 <zeroes.0>
   126f2:	8bda                	mv	s7,s6
   126f4:	8af2                	mv	s5,t3
   126f6:	8b42                	mv	s6,a6
   126f8:	a021                	j	12700 <_vfprintf_r+0x12fa>
   126fa:	34c1                	addiw	s1,s1,-16
   126fc:	2c98d063          	bge	a7,s1,129bc <_vfprintf_r+0x15b6>
   12700:	0741                	addi	a4,a4,16
   12702:	2685                	addiw	a3,a3,1
   12704:	0187b023          	sd	s8,0(a5)
   12708:	0117b423          	sd	a7,8(a5)
   1270c:	f9ba                	sd	a4,240(sp)
   1270e:	d5b6                	sw	a3,232(sp)
   12710:	07c1                	addi	a5,a5,16
   12712:	feddd4e3          	bge	s11,a3,126fa <_vfprintf_r+0x12f4>
   12716:	65c2                	ld	a1,16(sp)
   12718:	6522                	ld	a0,8(sp)
   1271a:	1190                	addi	a2,sp,224
   1271c:	5ee030ef          	jal	15d0a <__sprint_r>
   12720:	900519e3          	bnez	a0,12032 <_vfprintf_r+0xc2c>
   12724:	774e                	ld	a4,240(sp)
   12726:	56ae                	lw	a3,232(sp)
   12728:	87d2                	mv	a5,s4
   1272a:	48c1                	li	a7,16
   1272c:	b7f9                	j	126fa <_vfprintf_r+0x12f4>
   1272e:	2004fb13          	andi	s6,s1,512
   12732:	0a0103a3          	sb	zero,167(sp)
   12736:	4e0b0663          	beqz	s6,12c22 <_vfprintf_r+0x181c>
   1273a:	0ff97913          	zext.b	s2,s2
   1273e:	e00ad5e3          	bgez	s5,12548 <_vfprintf_r+0x1142>
   12742:	f03a                	sd	a4,32(sp)
   12744:	d02ff06f          	j	11c46 <_vfprintf_r+0x840>
   12748:	010e7793          	andi	a5,t3,16
   1274c:	cbc1                	beqz	a5,127dc <_vfprintf_r+0x13d6>
   1274e:	7782                	ld	a5,32(sp)
   12750:	6398                	ld	a4,0(a5)
   12752:	b70d                	j	12674 <_vfprintf_r+0x126e>
   12754:	65c2                	ld	a1,16(sp)
   12756:	6522                	ld	a0,8(sp)
   12758:	1190                	addi	a2,sp,224
   1275a:	ecc2                	sd	a6,88(sp)
   1275c:	e0f2                	sd	t3,64(sp)
   1275e:	fc3e                	sd	a5,56(sp)
   12760:	5aa030ef          	jal	15d0a <__sprint_r>
   12764:	8c0517e3          	bnez	a0,12032 <_vfprintf_r+0xc2c>
   12768:	794e                	ld	s2,240(sp)
   1276a:	5aae                	lw	s5,232(sp)
   1276c:	6866                	ld	a6,88(sp)
   1276e:	6e06                	ld	t3,64(sp)
   12770:	77e2                	ld	a5,56(sp)
   12772:	8b52                	mv	s6,s4
   12774:	b2a5                	j	120dc <_vfprintf_r+0xcd6>
   12776:	65c2                	ld	a1,16(sp)
   12778:	6522                	ld	a0,8(sp)
   1277a:	1190                	addi	a2,sp,224
   1277c:	ecc2                	sd	a6,88(sp)
   1277e:	e0f2                	sd	t3,64(sp)
   12780:	fc3e                	sd	a5,56(sp)
   12782:	588030ef          	jal	15d0a <__sprint_r>
   12786:	8a0516e3          	bnez	a0,12032 <_vfprintf_r+0xc2c>
   1278a:	794e                	ld	s2,240(sp)
   1278c:	5aae                	lw	s5,232(sp)
   1278e:	6866                	ld	a6,88(sp)
   12790:	6e06                	ld	t3,64(sp)
   12792:	77e2                	ld	a5,56(sp)
   12794:	8b52                	mv	s6,s4
   12796:	b22d                	j	120c0 <_vfprintf_r+0xcba>
   12798:	bffe7e13          	andi	t3,t3,-1025
   1279c:	f02e                	sd	a1,32(sp)
   1279e:	4b01                	li	s6,0
   127a0:	4281                	li	t0,0
   127a2:	bbfd                	j	125a0 <_vfprintf_r+0x119a>
   127a4:	65c2                	ld	a1,16(sp)
   127a6:	6522                	ld	a0,8(sp)
   127a8:	1190                	addi	a2,sp,224
   127aa:	ed46                	sd	a7,152(sp)
   127ac:	e942                	sd	a6,144(sp)
   127ae:	e172                	sd	t3,128(sp)
   127b0:	fcbe                	sd	a5,120(sp)
   127b2:	ec96                	sd	t0,88(sp)
   127b4:	556030ef          	jal	15d0a <__sprint_r>
   127b8:	86051de3          	bnez	a0,12032 <_vfprintf_r+0xc2c>
   127bc:	0a714703          	lbu	a4,167(sp)
   127c0:	794e                	ld	s2,240(sp)
   127c2:	62e6                	ld	t0,88(sp)
   127c4:	77e6                	ld	a5,120(sp)
   127c6:	6e0a                	ld	t3,128(sp)
   127c8:	684a                	ld	a6,144(sp)
   127ca:	68ea                	ld	a7,152(sp)
   127cc:	8b26                	mv	s6,s1
   127ce:	12070563          	beqz	a4,128f8 <_vfprintf_r+0x14f2>
   127d2:	552e                	lw	a0,232(sp)
   127d4:	4481                	li	s1,0
   127d6:	8bd2                	mv	s7,s4
   127d8:	de9fe06f          	j	115c0 <_vfprintf_r+0x1ba>
   127dc:	7702                	ld	a4,32(sp)
   127de:	040e7793          	andi	a5,t3,64
   127e2:	4318                	lw	a4,0(a4)
   127e4:	14078763          	beqz	a5,12932 <_vfprintf_r+0x152c>
   127e8:	1742                	slli	a4,a4,0x30
   127ea:	9341                	srli	a4,a4,0x30
   127ec:	b561                	j	12674 <_vfprintf_r+0x126e>
   127ee:	03000793          	li	a5,48
   127f2:	0bb104a3          	sb	s11,169(sp)
   127f6:	0a0103a3          	sb	zero,167(sp)
   127fa:	0af10423          	sb	a5,168(sp)
   127fe:	200ac363          	bltz	s5,12a04 <_vfprintf_r+0x15fe>
   12802:	b7fe7f13          	andi	t5,t3,-1153
   12806:	002f6e13          	ori	t3,t5,2
   1280a:	4b09                	li	s6,2
   1280c:	0a714283          	lbu	t0,167(sp)
   12810:	f02e                	sd	a1,32(sp)
   12812:	b379                	j	125a0 <_vfprintf_r+0x119a>
   12814:	6522                	ld	a0,8(sp)
   12816:	cd7fd0ef          	jal	104ec <__sinit>
   1281a:	c29fe06f          	j	11442 <_vfprintf_r+0x3c>
   1281e:	4b01                	li	s6,0
   12820:	b7f5                	j	1280c <_vfprintf_r+0x1406>
   12822:	65c2                	ld	a1,16(sp)
   12824:	6522                	ld	a0,8(sp)
   12826:	1190                	addi	a2,sp,224
   12828:	e0c2                	sd	a6,64(sp)
   1282a:	fc72                	sd	t3,56(sp)
   1282c:	4de030ef          	jal	15d0a <__sprint_r>
   12830:	800511e3          	bnez	a0,12032 <_vfprintf_r+0xc2c>
   12834:	794e                	ld	s2,240(sp)
   12836:	6806                	ld	a6,64(sp)
   12838:	7e62                	ld	t3,56(sp)
   1283a:	8bd2                	mv	s7,s4
   1283c:	ad2ff06f          	j	11b0e <_vfprintf_r+0x708>
   12840:	84e2                	mv	s1,s8
   12842:	ff2ff06f          	j	12034 <_vfprintf_r+0xc2e>
   12846:	8e4a                	mv	t3,s2
   12848:	8856                	mv	a6,s5
   1284a:	893a                	mv	s2,a4
   1284c:	8aa6                	mv	s5,s1
   1284e:	84e2                	mv	s1,s8
   12850:	9956                	add	s2,s2,s5
   12852:	2785                	addiw	a5,a5,1
   12854:	f9ca                	sd	s2,240(sp)
   12856:	d5be                	sw	a5,232(sp)
   12858:	009bb023          	sd	s1,0(s7)
   1285c:	015bb423          	sd	s5,8(s7)
   12860:	471d                	li	a4,7
   12862:	00f74463          	blt	a4,a5,1286a <_vfprintf_r+0x1464>
   12866:	dc5fe06f          	j	1162a <_vfprintf_r+0x224>
   1286a:	908ff06f          	j	11972 <_vfprintf_r+0x56c>
   1286e:	654e                	ld	a0,208(sp)
   12870:	65ee                	ld	a1,216(sp)
   12872:	f7fe7e13          	andi	t3,t3,-129
   12876:	4601                	li	a2,0
   12878:	4681                	li	a3,0
   1287a:	f472                	sd	t3,40(sp)
   1287c:	4530e0ef          	jal	214ce <__letf2>
   12880:	7e22                	ld	t3,40(sp)
   12882:	70054863          	bltz	a0,12f92 <_vfprintf_r+0x1b8c>
   12886:	04700693          	li	a3,71
   1288a:	0a714703          	lbu	a4,167(sp)
   1288e:	00010797          	auipc	a5,0x10
   12892:	d5278793          	addi	a5,a5,-686 # 225e0 <__clzdi2+0x44>
   12896:	41b6c163          	blt	a3,s11,12c98 <_vfprintf_r+0x1892>
   1289a:	6a071c63          	bnez	a4,12f52 <_vfprintf_r+0x1b4c>
   1289e:	488d                	li	a7,3
   128a0:	8846                	mv	a6,a7
   128a2:	952ff06f          	j	119f4 <_vfprintf_r+0x5ee>
   128a6:	4b09                	li	s6,2
   128a8:	07800d93          	li	s11,120
   128ac:	00010617          	auipc	a2,0x10
   128b0:	d5460613          	addi	a2,a2,-684 # 22600 <__clzdi2+0x64>
   128b4:	bfa1                	j	1280c <_vfprintf_r+0x1406>
   128b6:	77ce                	ld	a5,240(sp)
   128b8:	64c2                	ld	s1,16(sp)
   128ba:	f8078263          	beqz	a5,1203e <_vfprintf_r+0xc38>
   128be:	6522                	ld	a0,8(sp)
   128c0:	1190                	addi	a2,sp,224
   128c2:	85a6                	mv	a1,s1
   128c4:	446030ef          	jal	15d0a <__sprint_r>
   128c8:	f76ff06f          	j	1203e <_vfprintf_r+0xc38>
   128cc:	853e                	mv	a0,a5
   128ce:	f472                	sd	t3,40(sp)
   128d0:	f03e                	sd	a5,32(sp)
   128d2:	558040ef          	jal	16e2a <strlen>
   128d6:	0005089b          	sext.w	a7,a0
   128da:	7782                	ld	a5,32(sp)
   128dc:	7e22                	ld	t3,40(sp)
   128de:	8746                	mv	a4,a7
   128e0:	3a08c763          	bltz	a7,12c8e <_vfprintf_r+0x1888>
   128e4:	0a714683          	lbu	a3,167(sp)
   128e8:	0007081b          	sext.w	a6,a4
   128ec:	90068363          	beqz	a3,119f2 <_vfprintf_r+0x5ec>
   128f0:	0017081b          	addiw	a6,a4,1
   128f4:	8feff06f          	j	119f2 <_vfprintf_r+0x5ec>
   128f8:	30028e63          	beqz	t0,12c14 <_vfprintf_r+0x180e>
   128fc:	552e                	lw	a0,232(sp)
   128fe:	4481                	li	s1,0
   12900:	8bd2                	mv	s7,s4
   12902:	ce1fe06f          	j	115e2 <_vfprintf_r+0x1dc>
   12906:	2004f793          	andi	a5,s1,512
   1290a:	32078f63          	beqz	a5,12c48 <_vfprintf_r+0x1842>
   1290e:	0ff6f693          	zext.b	a3,a3
   12912:	f03a                	sd	a4,32(sp)
   12914:	8826                	mv	a6,s1
   12916:	d40ff06f          	j	11e56 <_vfprintf_r+0xa50>
   1291a:	2004f793          	andi	a5,s1,512
   1291e:	2e078e63          	beqz	a5,12c1a <_vfprintf_r+0x1814>
   12922:	0189191b          	slliw	s2,s2,0x18
   12926:	4189591b          	sraiw	s2,s2,0x18
   1292a:	f03a                	sd	a4,32(sp)
   1292c:	87ca                	mv	a5,s2
   1292e:	a92ff06f          	j	11bc0 <_vfprintf_r+0x7ba>
   12932:	200e7793          	andi	a5,t3,512
   12936:	30078663          	beqz	a5,12c42 <_vfprintf_r+0x183c>
   1293a:	0ff77713          	zext.b	a4,a4
   1293e:	bb1d                	j	12674 <_vfprintf_r+0x126e>
   12940:	67ee                	ld	a5,216(sp)
   12942:	f7fe7e13          	andi	t3,t3,-129
   12946:	03f7db13          	srli	s6,a5,0x3f
   1294a:	3007da63          	bgez	a5,12c5e <_vfprintf_r+0x1858>
   1294e:	02d00793          	li	a5,45
   12952:	0af103a3          	sb	a5,167(sp)
   12956:	f402                	sd	zero,40(sp)
   12958:	04700793          	li	a5,71
   1295c:	e082                	sd	zero,64(sp)
   1295e:	fc02                	sd	zero,56(sp)
   12960:	488d                	li	a7,3
   12962:	4a81                	li	s5,0
   12964:	4b01                	li	s6,0
   12966:	13b7d3e3          	bge	a5,s11,1328c <_vfprintf_r+0x1e86>
   1296a:	00010797          	auipc	a5,0x10
   1296e:	c8e78793          	addi	a5,a5,-882 # 225f8 <__clzdi2+0x5c>
   12972:	4811                	li	a6,4
   12974:	c37fe06f          	j	115aa <_vfprintf_r+0x1a4>
   12978:	100e6713          	ori	a4,t3,256
   1297c:	57fd                	li	a5,-1
   1297e:	f43a                	sd	a4,40(sp)
   12980:	6c4e                	ld	s8,208(sp)
   12982:	6b6e                	ld	s6,216(sp)
   12984:	34fa8f63          	beq	s5,a5,12ce2 <_vfprintf_r+0x18dc>
   12988:	ec82                	sd	zero,88(sp)
   1298a:	000a9663          	bnez	s5,12996 <_vfprintf_r+0x1590>
   1298e:	fb990713          	addi	a4,s2,-71
   12992:	44070363          	beqz	a4,12dd8 <_vfprintf_r+0x19d2>
   12996:	340b5a63          	bgez	s6,12cea <_vfprintf_r+0x18e4>
   1299a:	57fd                	li	a5,-1
   1299c:	17fe                	slli	a5,a5,0x3f
   1299e:	00fb4b33          	xor	s6,s6,a5
   129a2:	02d00793          	li	a5,45
   129a6:	ecbe                	sd	a5,88(sp)
   129a8:	a689                	j	12cea <_vfprintf_r+0x18e4>
   129aa:	f402                	sd	zero,40(sp)
   129ac:	4881                	li	a7,0
   129ae:	e082                	sd	zero,64(sp)
   129b0:	fc02                	sd	zero,56(sp)
   129b2:	4b01                	li	s6,0
   129b4:	0afc                	addi	a5,sp,348
   129b6:	4801                	li	a6,0
   129b8:	bf3fe06f          	j	115aa <_vfprintf_r+0x1a4>
   129bc:	8e56                	mv	t3,s5
   129be:	885a                	mv	a6,s6
   129c0:	8aa6                	mv	s5,s1
   129c2:	8b5e                	mv	s6,s7
   129c4:	84e2                	mv	s1,s8
   129c6:	8bbe                	mv	s7,a5
   129c8:	87ca                	mv	a5,s2
   129ca:	893a                	mv	s2,a4
   129cc:	9956                	add	s2,s2,s5
   129ce:	2685                	addiw	a3,a3,1
   129d0:	009bb023          	sd	s1,0(s7)
   129d4:	015bb423          	sd	s5,8(s7)
   129d8:	f9ca                	sd	s2,240(sp)
   129da:	d5b6                	sw	a3,232(sp)
   129dc:	471d                	li	a4,7
   129de:	0bc1                	addi	s7,s7,16
   129e0:	8ad754e3          	bge	a4,a3,12288 <_vfprintf_r+0xe82>
   129e4:	65c2                	ld	a1,16(sp)
   129e6:	6522                	ld	a0,8(sp)
   129e8:	1190                	addi	a2,sp,224
   129ea:	e142                	sd	a6,128(sp)
   129ec:	fcf2                	sd	t3,120(sp)
   129ee:	ecbe                	sd	a5,88(sp)
   129f0:	31a030ef          	jal	15d0a <__sprint_r>
   129f4:	e2051f63          	bnez	a0,12032 <_vfprintf_r+0xc2c>
   129f8:	794e                	ld	s2,240(sp)
   129fa:	680a                	ld	a6,128(sp)
   129fc:	7e66                	ld	t3,120(sp)
   129fe:	67e6                	ld	a5,88(sp)
   12a00:	8bd2                	mv	s7,s4
   12a02:	b059                	j	12288 <_vfprintf_r+0xe82>
   12a04:	bffe7f13          	andi	t5,t3,-1025
   12a08:	002f6e13          	ori	t3,t5,2
   12a0c:	f02e                	sd	a1,32(sp)
   12a0e:	4b09                	li	s6,2
   12a10:	4281                	li	t0,0
   12a12:	b679                	j	125a0 <_vfprintf_r+0x119a>
   12a14:	7662                	ld	a2,56(sp)
   12a16:	6586                	ld	a1,64(sp)
   12a18:	00b66733          	or	a4,a2,a1
   12a1c:	1e070ee3          	beqz	a4,13418 <_vfprintf_r+0x2012>
   12a20:	7742                	ld	a4,48(sp)
   12a22:	ecea                	sd	s10,88(sp)
   12a24:	ed66                	sd	s9,152(sp)
   12a26:	7d46                	ld	s10,112(sp)
   12a28:	6caa                	ld	s9,136(sp)
   12a2a:	fcbe                	sd	a5,120(sp)
   12a2c:	00e78ab3          	add	s5,a5,a4
   12a30:	469d                	li	a3,7
   12a32:	87de                	mv	a5,s7
   12a34:	4b41                	li	s6,16
   12a36:	8ba6                	mv	s7,s1
   12a38:	00010d97          	auipc	s11,0x10
   12a3c:	fb8d8d93          	addi	s11,s11,-72 # 229f0 <zeroes.0>
   12a40:	84b2                	mv	s1,a2
   12a42:	e172                	sd	t3,128(sp)
   12a44:	864a                	mv	a2,s2
   12a46:	e942                	sd	a6,144(sp)
   12a48:	892e                	mv	s2,a1
   12a4a:	07204d63          	bgtz	s2,12ac4 <_vfprintf_r+0x16be>
   12a4e:	1d7d                	addi	s10,s10,-1
   12a50:	34fd                	addiw	s1,s1,-1
   12a52:	572e                	lw	a4,232(sp)
   12a54:	75a6                	ld	a1,104(sp)
   12a56:	9666                	add	a2,a2,s9
   12a58:	2705                	addiw	a4,a4,1
   12a5a:	e38c                	sd	a1,0(a5)
   12a5c:	0197b423          	sd	s9,8(a5)
   12a60:	f9b2                	sd	a2,240(sp)
   12a62:	d5ba                	sw	a4,232(sp)
   12a64:	07c1                	addi	a5,a5,16
   12a66:	0ce6cf63          	blt	a3,a4,12b44 <_vfprintf_r+0x173e>
   12a6a:	000d4583          	lbu	a1,0(s10)
   12a6e:	417a8fb3          	sub	t6,s5,s7
   12a72:	000f851b          	sext.w	a0,t6
   12a76:	0005881b          	sext.w	a6,a1
   12a7a:	8756                	mv	a4,s5
   12a7c:	00a5d363          	bge	a1,a0,12a82 <_vfprintf_r+0x167c>
   12a80:	8fc2                	mv	t6,a6
   12a82:	000f8c1b          	sext.w	s8,t6
   12a86:	03805263          	blez	s8,12aaa <_vfprintf_r+0x16a4>
   12a8a:	55ae                	lw	a1,232(sp)
   12a8c:	9662                	add	a2,a2,s8
   12a8e:	f9b2                	sd	a2,240(sp)
   12a90:	2585                	addiw	a1,a1,1
   12a92:	0177b023          	sd	s7,0(a5)
   12a96:	0187b423          	sd	s8,8(a5)
   12a9a:	d5ae                	sw	a1,232(sp)
   12a9c:	0ab6cf63          	blt	a3,a1,12b5a <_vfprintf_r+0x1754>
   12aa0:	000d4583          	lbu	a1,0(s10)
   12aa4:	07c1                	addi	a5,a5,16
   12aa6:	0005881b          	sext.w	a6,a1
   12aaa:	8562                	mv	a0,s8
   12aac:	000c5363          	bgez	s8,12ab2 <_vfprintf_r+0x16ac>
   12ab0:	4501                	li	a0,0
   12ab2:	40a80c3b          	subw	s8,a6,a0
   12ab6:	01804963          	bgtz	s8,12ac8 <_vfprintf_r+0x16c2>
   12aba:	9bae                	add	s7,s7,a1
   12abc:	f89047e3          	bgtz	s1,12a4a <_vfprintf_r+0x1644>
   12ac0:	2f205e63          	blez	s2,12dbc <_vfprintf_r+0x19b6>
   12ac4:	397d                	addiw	s2,s2,-1
   12ac6:	b771                	j	12a52 <_vfprintf_r+0x164c>
   12ac8:	55ae                	lw	a1,232(sp)
   12aca:	00010f97          	auipc	t6,0x10
   12ace:	f26f8f93          	addi	t6,t6,-218 # 229f0 <zeroes.0>
   12ad2:	058b5b63          	bge	s6,s8,12b28 <_vfprintf_r+0x1722>
   12ad6:	e0a6                	sd	s1,64(sp)
   12ad8:	fc3a                	sd	a4,56(sp)
   12ada:	84e2                	mv	s1,s8
   12adc:	8c56                	mv	s8,s5
   12ade:	a021                	j	12ae6 <_vfprintf_r+0x16e0>
   12ae0:	34c1                	addiw	s1,s1,-16
   12ae2:	029b5b63          	bge	s6,s1,12b18 <_vfprintf_r+0x1712>
   12ae6:	0641                	addi	a2,a2,16
   12ae8:	2585                	addiw	a1,a1,1
   12aea:	01b7b023          	sd	s11,0(a5)
   12aee:	0167b423          	sd	s6,8(a5)
   12af2:	f9b2                	sd	a2,240(sp)
   12af4:	d5ae                	sw	a1,232(sp)
   12af6:	07c1                	addi	a5,a5,16
   12af8:	feb6d4e3          	bge	a3,a1,12ae0 <_vfprintf_r+0x16da>
   12afc:	65c2                	ld	a1,16(sp)
   12afe:	6522                	ld	a0,8(sp)
   12b00:	1190                	addi	a2,sp,224
   12b02:	208030ef          	jal	15d0a <__sprint_r>
   12b06:	d2051663          	bnez	a0,12032 <_vfprintf_r+0xc2c>
   12b0a:	34c1                	addiw	s1,s1,-16
   12b0c:	764e                	ld	a2,240(sp)
   12b0e:	55ae                	lw	a1,232(sp)
   12b10:	87d2                	mv	a5,s4
   12b12:	469d                	li	a3,7
   12b14:	fc9b49e3          	blt	s6,s1,12ae6 <_vfprintf_r+0x16e0>
   12b18:	8ae2                	mv	s5,s8
   12b1a:	7762                	ld	a4,56(sp)
   12b1c:	8c26                	mv	s8,s1
   12b1e:	6486                	ld	s1,64(sp)
   12b20:	00010f97          	auipc	t6,0x10
   12b24:	ed0f8f93          	addi	t6,t6,-304 # 229f0 <zeroes.0>
   12b28:	9662                	add	a2,a2,s8
   12b2a:	2585                	addiw	a1,a1,1
   12b2c:	f9b2                	sd	a2,240(sp)
   12b2e:	d5ae                	sw	a1,232(sp)
   12b30:	01f7b023          	sd	t6,0(a5)
   12b34:	0187b423          	sd	s8,8(a5)
   12b38:	4eb6c363          	blt	a3,a1,1301e <_vfprintf_r+0x1c18>
   12b3c:	000d4583          	lbu	a1,0(s10)
   12b40:	07c1                	addi	a5,a5,16
   12b42:	bfa5                	j	12aba <_vfprintf_r+0x16b4>
   12b44:	65c2                	ld	a1,16(sp)
   12b46:	6522                	ld	a0,8(sp)
   12b48:	1190                	addi	a2,sp,224
   12b4a:	1c0030ef          	jal	15d0a <__sprint_r>
   12b4e:	ce051263          	bnez	a0,12032 <_vfprintf_r+0xc2c>
   12b52:	764e                	ld	a2,240(sp)
   12b54:	87d2                	mv	a5,s4
   12b56:	469d                	li	a3,7
   12b58:	bf09                	j	12a6a <_vfprintf_r+0x1664>
   12b5a:	65c2                	ld	a1,16(sp)
   12b5c:	6522                	ld	a0,8(sp)
   12b5e:	1190                	addi	a2,sp,224
   12b60:	fc3a                	sd	a4,56(sp)
   12b62:	1a8030ef          	jal	15d0a <__sprint_r>
   12b66:	cc051663          	bnez	a0,12032 <_vfprintf_r+0xc2c>
   12b6a:	000d4583          	lbu	a1,0(s10)
   12b6e:	764e                	ld	a2,240(sp)
   12b70:	7762                	ld	a4,56(sp)
   12b72:	87d2                	mv	a5,s4
   12b74:	0005881b          	sext.w	a6,a1
   12b78:	469d                	li	a3,7
   12b7a:	bf05                	j	12aaa <_vfprintf_r+0x16a4>
   12b7c:	0007881b          	sext.w	a6,a5
   12b80:	be1d                	j	126b6 <_vfprintf_r+0x12b0>
   12b82:	65c2                	ld	a1,16(sp)
   12b84:	6522                	ld	a0,8(sp)
   12b86:	1190                	addi	a2,sp,224
   12b88:	e142                	sd	a6,128(sp)
   12b8a:	fcf2                	sd	t3,120(sp)
   12b8c:	ecbe                	sd	a5,88(sp)
   12b8e:	17c030ef          	jal	15d0a <__sprint_r>
   12b92:	ca051063          	bnez	a0,12032 <_vfprintf_r+0xc2c>
   12b96:	794e                	ld	s2,240(sp)
   12b98:	680a                	ld	a6,128(sp)
   12b9a:	7e66                	ld	t3,120(sp)
   12b9c:	67e6                	ld	a5,88(sp)
   12b9e:	8bd2                	mv	s7,s4
   12ba0:	edaff06f          	j	1227a <_vfprintf_r+0xe74>
   12ba4:	001e7713          	andi	a4,t3,1
   12ba8:	e319                	bnez	a4,12bae <_vfprintf_r+0x17a8>
   12baa:	a83fe06f          	j	1162c <_vfprintf_r+0x226>
   12bae:	6726                	ld	a4,72(sp)
   12bb0:	56ae                	lw	a3,232(sp)
   12bb2:	6646                	ld	a2,80(sp)
   12bb4:	993a                	add	s2,s2,a4
   12bb6:	2685                	addiw	a3,a3,1
   12bb8:	00ebb423          	sd	a4,8(s7)
   12bbc:	f9ca                	sd	s2,240(sp)
   12bbe:	00cbb023          	sd	a2,0(s7)
   12bc2:	d5b6                	sw	a3,232(sp)
   12bc4:	471d                	li	a4,7
   12bc6:	46d75c63          	bge	a4,a3,1303e <_vfprintf_r+0x1c38>
   12bca:	65c2                	ld	a1,16(sp)
   12bcc:	6522                	ld	a0,8(sp)
   12bce:	1190                	addi	a2,sp,224
   12bd0:	ecc2                	sd	a6,88(sp)
   12bd2:	e0f2                	sd	t3,64(sp)
   12bd4:	fc3e                	sd	a5,56(sp)
   12bd6:	134030ef          	jal	15d0a <__sprint_r>
   12bda:	c4051c63          	bnez	a0,12032 <_vfprintf_r+0xc2c>
   12bde:	564a                	lw	a2,176(sp)
   12be0:	794e                	ld	s2,240(sp)
   12be2:	56ae                	lw	a3,232(sp)
   12be4:	6866                	ld	a6,88(sp)
   12be6:	6e06                	ld	t3,64(sp)
   12be8:	77e2                	ld	a5,56(sp)
   12bea:	8bd2                	mv	s7,s4
   12bec:	d67fe06f          	j	11952 <_vfprintf_r+0x54c>
   12bf0:	00d78b33          	add	s6,a5,a3
   12bf4:	409b0b33          	sub	s6,s6,s1
   12bf8:	41568abb          	subw	s5,a3,s5
   12bfc:	000b079b          	sext.w	a5,s6
   12c00:	00fad363          	bge	s5,a5,12c06 <_vfprintf_r+0x1800>
   12c04:	8b56                	mv	s6,s5
   12c06:	2b01                	sext.w	s6,s6
   12c08:	ef0ff06f          	j	122f8 <_vfprintf_r+0xef2>
   12c0c:	0016881b          	addiw	a6,a3,1
   12c10:	de3fe06f          	j	119f2 <_vfprintf_r+0x5ec>
   12c14:	8bd2                	mv	s7,s4
   12c16:	9effe06f          	j	11604 <_vfprintf_r+0x1fe>
   12c1a:	f03a                	sd	a4,32(sp)
   12c1c:	87ca                	mv	a5,s2
   12c1e:	fa3fe06f          	j	11bc0 <_vfprintf_r+0x7ba>
   12c22:	1902                	slli	s2,s2,0x20
   12c24:	02095913          	srli	s2,s2,0x20
   12c28:	b00acde3          	bltz	s5,12742 <_vfprintf_r+0x133c>
   12c2c:	f03a                	sd	a4,32(sp)
   12c2e:	f7f4fe13          	andi	t3,s1,-129
   12c32:	000a8463          	beqz	s5,12c3a <_vfprintf_r+0x1834>
   12c36:	810ff06f          	j	11c46 <_vfprintf_r+0x840>
   12c3a:	aa090563          	beqz	s2,11ee4 <_vfprintf_r+0xade>
   12c3e:	808ff06f          	j	11c46 <_vfprintf_r+0x840>
   12c42:	1702                	slli	a4,a4,0x20
   12c44:	9301                	srli	a4,a4,0x20
   12c46:	b43d                	j	12674 <_vfprintf_r+0x126e>
   12c48:	1682                	slli	a3,a3,0x20
   12c4a:	9281                	srli	a3,a3,0x20
   12c4c:	f03a                	sd	a4,32(sp)
   12c4e:	8826                	mv	a6,s1
   12c50:	a06ff06f          	j	11e56 <_vfprintf_r+0xa50>
   12c54:	67e2                	ld	a5,24(sp)
   12c56:	00f71023          	sh	a5,0(a4)
   12c5a:	867fe06f          	j	114c0 <_vfprintf_r+0xba>
   12c5e:	04700693          	li	a3,71
   12c62:	0a714703          	lbu	a4,167(sp)
   12c66:	00010797          	auipc	a5,0x10
   12c6a:	98a78793          	addi	a5,a5,-1654 # 225f0 <__clzdi2+0x54>
   12c6e:	01b6d663          	bge	a3,s11,12c7a <_vfprintf_r+0x1874>
   12c72:	00010797          	auipc	a5,0x10
   12c76:	98678793          	addi	a5,a5,-1658 # 225f8 <__clzdi2+0x5c>
   12c7a:	7c071563          	bnez	a4,13444 <_vfprintf_r+0x203e>
   12c7e:	488d                	li	a7,3
   12c80:	8846                	mv	a6,a7
   12c82:	4a81                	li	s5,0
   12c84:	e082                	sd	zero,64(sp)
   12c86:	fc02                	sd	zero,56(sp)
   12c88:	f402                	sd	zero,40(sp)
   12c8a:	921fe06f          	j	115aa <_vfprintf_r+0x1a4>
   12c8e:	4701                	li	a4,0
   12c90:	b991                	j	128e4 <_vfprintf_r+0x14de>
   12c92:	4681                	li	a3,0
   12c94:	d55fe06f          	j	119e8 <_vfprintf_r+0x5e2>
   12c98:	00010797          	auipc	a5,0x10
   12c9c:	95078793          	addi	a5,a5,-1712 # 225e8 <__clzdi2+0x4c>
   12ca0:	be070fe3          	beqz	a4,1289e <_vfprintf_r+0x1498>
   12ca4:	a47d                	j	12f52 <_vfprintf_r+0x1b4c>
   12ca6:	6522                	ld	a0,8(sp)
   12ca8:	001a859b          	addiw	a1,s5,1
   12cac:	f472                	sd	t3,40(sp)
   12cae:	8d8fe0ef          	jal	10d86 <_malloc_r>
   12cb2:	7e22                	ld	t3,40(sp)
   12cb4:	87aa                	mv	a5,a0
   12cb6:	76050463          	beqz	a0,1341e <_vfprintf_r+0x2018>
   12cba:	65ee                	ld	a1,216(sp)
   12cbc:	f43e                	sd	a5,40(sp)
   12cbe:	ec82                	sd	zero,88(sp)
   12cc0:	654e                	ld	a0,208(sp)
   12cc2:	0005c463          	bltz	a1,12cca <_vfprintf_r+0x18c4>
   12cc6:	a83fe06f          	j	11748 <_vfprintf_r+0x342>
   12cca:	577d                	li	a4,-1
   12ccc:	177e                	slli	a4,a4,0x3f
   12cce:	8db9                	xor	a1,a1,a4
   12cd0:	02d00713          	li	a4,45
   12cd4:	ecba                	sd	a4,88(sp)
   12cd6:	a73fe06f          	j	11748 <_vfprintf_r+0x342>
   12cda:	07800793          	li	a5,120
   12cde:	a49fe06f          	j	11726 <_vfprintf_r+0x320>
   12ce2:	6c0b4e63          	bltz	s6,133be <_vfprintf_r+0x1fb8>
   12ce6:	ec82                	sd	zero,88(sp)
   12ce8:	4a99                	li	s5,6
   12cea:	04600793          	li	a5,70
   12cee:	2cf91763          	bne	s2,a5,12fbc <_vfprintf_r+0x1bb6>
   12cf2:	6522                	ld	a0,8(sp)
   12cf4:	191c                	addi	a5,sp,176
   12cf6:	8756                	mv	a4,s5
   12cf8:	468d                	li	a3,3
   12cfa:	865a                	mv	a2,s6
   12cfc:	0c810893          	addi	a7,sp,200
   12d00:	0b410813          	addi	a6,sp,180
   12d04:	85e2                	mv	a1,s8
   12d06:	f872                	sd	t3,48(sp)
   12d08:	3c0040ef          	jal	170c8 <_ldtoa_r>
   12d0c:	00054603          	lbu	a2,0(a0)
   12d10:	03000693          	li	a3,48
   12d14:	7e42                	ld	t3,48(sp)
   12d16:	87aa                	mv	a5,a0
   12d18:	01550733          	add	a4,a0,s5
   12d1c:	58d60263          	beq	a2,a3,132a0 <_vfprintf_r+0x1e9a>
   12d20:	56ca                	lw	a3,176(sp)
   12d22:	00d704b3          	add	s1,a4,a3
   12d26:	8562                	mv	a0,s8
   12d28:	85da                	mv	a1,s6
   12d2a:	4601                	li	a2,0
   12d2c:	4681                	li	a3,0
   12d2e:	fc72                	sd	t3,56(sp)
   12d30:	f83e                	sd	a5,48(sp)
   12d32:	63e0e0ef          	jal	21370 <__eqtf2>
   12d36:	77c2                	ld	a5,48(sp)
   12d38:	7e62                	ld	t3,56(sp)
   12d3a:	50050463          	beqz	a0,13242 <_vfprintf_r+0x1e3c>
   12d3e:	68ae                	ld	a7,200(sp)
   12d40:	6c98f763          	bgeu	a7,s1,1340e <_vfprintf_r+0x2008>
   12d44:	03000693          	li	a3,48
   12d48:	00188713          	addi	a4,a7,1
   12d4c:	e5ba                	sd	a4,200(sp)
   12d4e:	00d88023          	sb	a3,0(a7)
   12d52:	68ae                	ld	a7,200(sp)
   12d54:	fe98eae3          	bltu	a7,s1,12d48 <_vfprintf_r+0x1942>
   12d58:	40f888b3          	sub	a7,a7,a5
   12d5c:	0008869b          	sext.w	a3,a7
   12d60:	04700713          	li	a4,71
   12d64:	f836                	sd	a3,48(sp)
   12d66:	5b4a                	lw	s6,176(sp)
   12d68:	0ae90c63          	beq	s2,a4,12e20 <_vfprintf_r+0x1a1a>
   12d6c:	04600713          	li	a4,70
   12d70:	0ae91e63          	bne	s2,a4,12e2c <_vfprintf_r+0x1a26>
   12d74:	001e7713          	andi	a4,t3,1
   12d78:	00eae733          	or	a4,s5,a4
   12d7c:	2701                	sext.w	a4,a4
   12d7e:	61605363          	blez	s6,13384 <_vfprintf_r+0x1f7e>
   12d82:	56071e63          	bnez	a4,132fe <_vfprintf_r+0x1ef8>
   12d86:	88da                	mv	a7,s6
   12d88:	06600d93          	li	s11,102
   12d8c:	400e7f13          	andi	t5,t3,1024
   12d90:	4c0f1063          	bnez	t5,13250 <_vfprintf_r+0x1e4a>
   12d94:	0008881b          	sext.w	a6,a7
   12d98:	0008d363          	bgez	a7,12d9e <_vfprintf_r+0x1998>
   12d9c:	4801                	li	a6,0
   12d9e:	6766                	ld	a4,88(sp)
   12da0:	34070263          	beqz	a4,130e4 <_vfprintf_r+0x1cde>
   12da4:	02d00713          	li	a4,45
   12da8:	0ae103a3          	sb	a4,167(sp)
   12dac:	2805                	addiw	a6,a6,1
   12dae:	7e22                	ld	t3,40(sp)
   12db0:	4a81                	li	s5,0
   12db2:	f402                	sd	zero,40(sp)
   12db4:	e082                	sd	zero,64(sp)
   12db6:	fc02                	sd	zero,56(sp)
   12db8:	ff2fe06f          	j	115aa <_vfprintf_r+0x1a4>
   12dbc:	84de                	mv	s1,s7
   12dbe:	f8ea                	sd	s10,112(sp)
   12dc0:	8bbe                	mv	s7,a5
   12dc2:	6e0a                	ld	t3,128(sp)
   12dc4:	77e6                	ld	a5,120(sp)
   12dc6:	6d66                	ld	s10,88(sp)
   12dc8:	684a                	ld	a6,144(sp)
   12dca:	6cea                	ld	s9,152(sp)
   12dcc:	8932                	mv	s2,a2
   12dce:	cc977363          	bgeu	a4,s1,12294 <_vfprintf_r+0xe8e>
   12dd2:	84ba                	mv	s1,a4
   12dd4:	cc0ff06f          	j	12294 <_vfprintf_r+0xe8e>
   12dd8:	000b5863          	bgez	s6,12de8 <_vfprintf_r+0x19e2>
   12ddc:	17fe                	slli	a5,a5,0x3f
   12dde:	00fb4b33          	xor	s6,s6,a5
   12de2:	02d00793          	li	a5,45
   12de6:	ecbe                	sd	a5,88(sp)
   12de8:	6522                	ld	a0,8(sp)
   12dea:	191c                	addi	a5,sp,176
   12dec:	0c810893          	addi	a7,sp,200
   12df0:	0b410813          	addi	a6,sp,180
   12df4:	4705                	li	a4,1
   12df6:	4689                	li	a3,2
   12df8:	85e2                	mv	a1,s8
   12dfa:	865a                	mv	a2,s6
   12dfc:	fc72                	sd	t3,56(sp)
   12dfe:	2ca040ef          	jal	170c8 <_ldtoa_r>
   12e02:	7e62                	ld	t3,56(sp)
   12e04:	4a85                	li	s5,1
   12e06:	87aa                	mv	a5,a0
   12e08:	f856                	sd	s5,48(sp)
   12e0a:	001e7713          	andi	a4,t3,1
   12e0e:	36071563          	bnez	a4,13178 <_vfprintf_r+0x1d72>
   12e12:	68ae                	ld	a7,200(sp)
   12e14:	5b4a                	lw	s6,176(sp)
   12e16:	40f888b3          	sub	a7,a7,a5
   12e1a:	0008871b          	sext.w	a4,a7
   12e1e:	f83a                	sd	a4,48(sp)
   12e20:	ffdb2713          	slti	a4,s6,-3
   12e24:	e319                	bnez	a4,12e2a <_vfprintf_r+0x1a24>
   12e26:	0d6add63          	bge	s5,s6,12f00 <_vfprintf_r+0x1afa>
   12e2a:	3df9                	addiw	s11,s11,-2
   12e2c:	fffb071b          	addiw	a4,s6,-1
   12e30:	0bb10c23          	sb	s11,184(sp)
   12e34:	d93a                	sw	a4,176(sp)
   12e36:	50074863          	bltz	a4,13346 <_vfprintf_r+0x1f40>
   12e3a:	02b00693          	li	a3,43
   12e3e:	0ad10ca3          	sb	a3,185(sp)
   12e42:	46a5                	li	a3,9
   12e44:	50e6db63          	bge	a3,a4,1335a <_vfprintf_r+0x1f54>
   12e48:	fc72                	sd	t3,56(sp)
   12e4a:	f402                	sd	zero,40(sp)
   12e4c:	0c710f13          	addi	t5,sp,199
   12e50:	666668b7          	lui	a7,0x66666
   12e54:	857a                	mv	a0,t5
   12e56:	66788893          	addi	a7,a7,1639 # 66666667 <__BSS_END__+0x66640bef>
   12e5a:	06300f93          	li	t6,99
   12e5e:	031706b3          	mul	a3,a4,a7
   12e62:	41f7561b          	sraiw	a2,a4,0x1f
   12e66:	883a                	mv	a6,a4
   12e68:	85aa                	mv	a1,a0
   12e6a:	157d                	addi	a0,a0,-1
   12e6c:	9689                	srai	a3,a3,0x22
   12e6e:	9e91                	subw	a3,a3,a2
   12e70:	0026961b          	slliw	a2,a3,0x2
   12e74:	9e35                	addw	a2,a2,a3
   12e76:	0016161b          	slliw	a2,a2,0x1
   12e7a:	9f11                	subw	a4,a4,a2
   12e7c:	0307071b          	addiw	a4,a4,48
   12e80:	fee58fa3          	sb	a4,-1(a1)
   12e84:	8736                	mv	a4,a3
   12e86:	fd0fcce3          	blt	t6,a6,12e5e <_vfprintf_r+0x1a58>
   12e8a:	0306871b          	addiw	a4,a3,48
   12e8e:	fee50fa3          	sb	a4,-1(a0)
   12e92:	ffe58713          	addi	a4,a1,-2
   12e96:	55e77f63          	bgeu	a4,t5,133f4 <_vfprintf_r+0x1fee>
   12e9a:	0ba10513          	addi	a0,sp,186
   12e9e:	86aa                	mv	a3,a0
   12ea0:	00074603          	lbu	a2,0(a4)
   12ea4:	0705                	addi	a4,a4,1
   12ea6:	0685                	addi	a3,a3,1
   12ea8:	fec68fa3          	sb	a2,-1(a3)
   12eac:	ffe71ae3          	bne	a4,t5,12ea0 <_vfprintf_r+0x1a9a>
   12eb0:	972a                	add	a4,a4,a0
   12eb2:	0709                	addi	a4,a4,2
   12eb4:	8f0d                	sub	a4,a4,a1
   12eb6:	1934                	addi	a3,sp,184
   12eb8:	9f15                	subw	a4,a4,a3
   12eba:	f0ba                	sd	a4,96(sp)
   12ebc:	7642                	ld	a2,48(sp)
   12ebe:	7706                	ld	a4,96(sp)
   12ec0:	4685                	li	a3,1
   12ec2:	9f31                	addw	a4,a4,a2
   12ec4:	88ba                	mv	a7,a4
   12ec6:	32c6dd63          	bge	a3,a2,13200 <_vfprintf_r+0x1dfa>
   12eca:	66a6                	ld	a3,72(sp)
   12ecc:	00e688bb          	addw	a7,a3,a4
   12ed0:	7762                	ld	a4,56(sp)
   12ed2:	0008881b          	sext.w	a6,a7
   12ed6:	bff77f13          	andi	t5,a4,-1025
   12eda:	100f6e13          	ori	t3,t5,256
   12ede:	0008d363          	bgez	a7,12ee4 <_vfprintf_r+0x1ade>
   12ee2:	4801                	li	a6,0
   12ee4:	7762                	ld	a4,56(sp)
   12ee6:	00277b13          	andi	s6,a4,2
   12eea:	6766                	ld	a4,88(sp)
   12eec:	30070163          	beqz	a4,131ee <_vfprintf_r+0x1de8>
   12ef0:	02d00293          	li	t0,45
   12ef4:	0a5103a3          	sb	t0,167(sp)
   12ef8:	4a81                	li	s5,0
   12efa:	2805                	addiw	a6,a6,1
   12efc:	ceffe06f          	j	11bea <_vfprintf_r+0x7e4>
   12f00:	7742                	ld	a4,48(sp)
   12f02:	02eb4663          	blt	s6,a4,12f2e <_vfprintf_r+0x1b28>
   12f06:	001e7713          	andi	a4,t3,1
   12f0a:	88da                	mv	a7,s6
   12f0c:	c701                	beqz	a4,12f14 <_vfprintf_r+0x1b0e>
   12f0e:	6726                	ld	a4,72(sp)
   12f10:	016708bb          	addw	a7,a4,s6
   12f14:	400e7f13          	andi	t5,t3,1024
   12f18:	000f0463          	beqz	t5,12f20 <_vfprintf_r+0x1b1a>
   12f1c:	33604863          	bgtz	s6,1324c <_vfprintf_r+0x1e46>
   12f20:	0008881b          	sext.w	a6,a7
   12f24:	0208c363          	bltz	a7,12f4a <_vfprintf_r+0x1b44>
   12f28:	06700d93          	li	s11,103
   12f2c:	bd8d                	j	12d9e <_vfprintf_r+0x1998>
   12f2e:	6726                	ld	a4,72(sp)
   12f30:	06700d93          	li	s11,103
   12f34:	011708bb          	addw	a7,a4,a7
   12f38:	e5604ae3          	bgtz	s6,12d8c <_vfprintf_r+0x1986>
   12f3c:	416888bb          	subw	a7,a7,s6
   12f40:	2885                	addiw	a7,a7,1
   12f42:	0008881b          	sext.w	a6,a7
   12f46:	fe08d1e3          	bgez	a7,12f28 <_vfprintf_r+0x1b22>
   12f4a:	4801                	li	a6,0
   12f4c:	06700d93          	li	s11,103
   12f50:	b5b9                	j	12d9e <_vfprintf_r+0x1998>
   12f52:	f402                	sd	zero,40(sp)
   12f54:	488d                	li	a7,3
   12f56:	4a81                	li	s5,0
   12f58:	e082                	sd	zero,64(sp)
   12f5a:	fc02                	sd	zero,56(sp)
   12f5c:	4b01                	li	s6,0
   12f5e:	4811                	li	a6,4
   12f60:	e4afe06f          	j	115aa <_vfprintf_r+0x1a4>
   12f64:	00010497          	auipc	s1,0x10
   12f68:	a8c48493          	addi	s1,s1,-1396 # 229f0 <zeroes.0>
   12f6c:	b0d5                	j	12850 <_vfprintf_r+0x144a>
   12f6e:	65c2                	ld	a1,16(sp)
   12f70:	6522                	ld	a0,8(sp)
   12f72:	1190                	addi	a2,sp,224
   12f74:	ecc2                	sd	a6,88(sp)
   12f76:	e0f2                	sd	t3,64(sp)
   12f78:	fc3e                	sd	a5,56(sp)
   12f7a:	591020ef          	jal	15d0a <__sprint_r>
   12f7e:	8a051a63          	bnez	a0,12032 <_vfprintf_r+0xc2c>
   12f82:	564a                	lw	a2,176(sp)
   12f84:	794e                	ld	s2,240(sp)
   12f86:	6866                	ld	a6,88(sp)
   12f88:	6e06                	ld	t3,64(sp)
   12f8a:	77e2                	ld	a5,56(sp)
   12f8c:	8bd2                	mv	s7,s4
   12f8e:	999fe06f          	j	11926 <_vfprintf_r+0x520>
   12f92:	02d00793          	li	a5,45
   12f96:	0af103a3          	sb	a5,167(sp)
   12f9a:	f402                	sd	zero,40(sp)
   12f9c:	04700793          	li	a5,71
   12fa0:	e082                	sd	zero,64(sp)
   12fa2:	fc02                	sd	zero,56(sp)
   12fa4:	488d                	li	a7,3
   12fa6:	4a81                	li	s5,0
   12fa8:	4b01                	li	s6,0
   12faa:	29b7d563          	bge	a5,s11,13234 <_vfprintf_r+0x1e2e>
   12fae:	0000f797          	auipc	a5,0xf
   12fb2:	63a78793          	addi	a5,a5,1594 # 225e8 <__clzdi2+0x4c>
   12fb6:	4811                	li	a6,4
   12fb8:	df2fe06f          	j	115aa <_vfprintf_r+0x1a4>
   12fbc:	fbb90793          	addi	a5,s2,-69
   12fc0:	6522                	ld	a0,8(sp)
   12fc2:	0017b793          	seqz	a5,a5
   12fc6:	015787bb          	addw	a5,a5,s5
   12fca:	873e                	mv	a4,a5
   12fcc:	f83e                	sd	a5,48(sp)
   12fce:	0c810893          	addi	a7,sp,200
   12fd2:	191c                	addi	a5,sp,176
   12fd4:	0b410813          	addi	a6,sp,180
   12fd8:	4689                	li	a3,2
   12fda:	85e2                	mv	a1,s8
   12fdc:	865a                	mv	a2,s6
   12fde:	fc72                	sd	t3,56(sp)
   12fe0:	0e8040ef          	jal	170c8 <_ldtoa_r>
   12fe4:	04700713          	li	a4,71
   12fe8:	7e62                	ld	t3,56(sp)
   12fea:	87aa                	mv	a5,a0
   12fec:	e0e90fe3          	beq	s2,a4,12e0a <_vfprintf_r+0x1a04>
   12ff0:	fc2a                	sd	a0,56(sp)
   12ff2:	85da                	mv	a1,s6
   12ff4:	8562                	mv	a0,s8
   12ff6:	4601                	li	a2,0
   12ff8:	4681                	li	a3,0
   12ffa:	e0f2                	sd	t3,64(sp)
   12ffc:	3740e0ef          	jal	21370 <__eqtf2>
   13000:	77e2                	ld	a5,56(sp)
   13002:	6e06                	ld	t3,64(sp)
   13004:	42050663          	beqz	a0,13430 <_vfprintf_r+0x202a>
   13008:	7742                	ld	a4,48(sp)
   1300a:	68ae                	ld	a7,200(sp)
   1300c:	00e784b3          	add	s1,a5,a4
   13010:	d298eae3          	bltu	a7,s1,12d44 <_vfprintf_r+0x193e>
   13014:	40f8873b          	subw	a4,a7,a5
   13018:	5b4a                	lw	s6,176(sp)
   1301a:	f83a                	sd	a4,48(sp)
   1301c:	bd01                	j	12e2c <_vfprintf_r+0x1a26>
   1301e:	65c2                	ld	a1,16(sp)
   13020:	6522                	ld	a0,8(sp)
   13022:	1190                	addi	a2,sp,224
   13024:	fc3a                	sd	a4,56(sp)
   13026:	4e5020ef          	jal	15d0a <__sprint_r>
   1302a:	c119                	beqz	a0,13030 <_vfprintf_r+0x1c2a>
   1302c:	806ff06f          	j	12032 <_vfprintf_r+0xc2c>
   13030:	000d4583          	lbu	a1,0(s10)
   13034:	764e                	ld	a2,240(sp)
   13036:	7762                	ld	a4,56(sp)
   13038:	87d2                	mv	a5,s4
   1303a:	469d                	li	a3,7
   1303c:	bcbd                	j	12aba <_vfprintf_r+0x16b4>
   1303e:	0bc1                	addi	s7,s7,16
   13040:	91bfe06f          	j	1195a <_vfprintf_r+0x554>
   13044:	65c2                	ld	a1,16(sp)
   13046:	6522                	ld	a0,8(sp)
   13048:	1190                	addi	a2,sp,224
   1304a:	ecc2                	sd	a6,88(sp)
   1304c:	e0f2                	sd	t3,64(sp)
   1304e:	fc3e                	sd	a5,56(sp)
   13050:	4bb020ef          	jal	15d0a <__sprint_r>
   13054:	c119                	beqz	a0,1305a <_vfprintf_r+0x1c54>
   13056:	fddfe06f          	j	12032 <_vfprintf_r+0xc2c>
   1305a:	5aca                	lw	s5,176(sp)
   1305c:	794e                	ld	s2,240(sp)
   1305e:	6866                	ld	a6,88(sp)
   13060:	6e06                	ld	t3,64(sp)
   13062:	77e2                	ld	a5,56(sp)
   13064:	8bd2                	mv	s7,s4
   13066:	a5cff06f          	j	122c2 <_vfprintf_r+0xebc>
   1306a:	662a                	ld	a2,136(sp)
   1306c:	75a6                	ld	a1,104(sp)
   1306e:	fc46                	sd	a7,56(sp)
   13070:	40c78333          	sub	t1,a5,a2
   13074:	851a                	mv	a0,t1
   13076:	f872                	sd	t3,48(sp)
   13078:	f41a                	sd	t1,40(sp)
   1307a:	229030ef          	jal	16aa2 <strncpy>
   1307e:	ccccd7b7          	lui	a5,0xccccd
   13082:	ccd78793          	addi	a5,a5,-819 # ffffffffcccccccd <__BSS_END__+0xffffffffccca7255>
   13086:	02079713          	slli	a4,a5,0x20
   1308a:	973e                	add	a4,a4,a5
   1308c:	02e93933          	mulhu	s2,s2,a4
   13090:	001c4683          	lbu	a3,1(s8)
   13094:	7322                	ld	t1,40(sp)
   13096:	7e42                	ld	t3,48(sp)
   13098:	00d036b3          	snez	a3,a3
   1309c:	9c36                	add	s8,s8,a3
   1309e:	78e2                	ld	a7,56(sp)
   130a0:	fff30793          	addi	a5,t1,-1
   130a4:	4585                	li	a1,1
   130a6:	4825                	li	a6,9
   130a8:	00395913          	srli	s2,s2,0x3
   130ac:	02e93733          	mulhu	a4,s2,a4
   130b0:	00375693          	srli	a3,a4,0x3
   130b4:	00269713          	slli	a4,a3,0x2
   130b8:	9736                	add	a4,a4,a3
   130ba:	0706                	slli	a4,a4,0x1
   130bc:	40e90733          	sub	a4,s2,a4
   130c0:	0307071b          	addiw	a4,a4,48
   130c4:	fee30fa3          	sb	a4,-1(t1)
   130c8:	cddfe06f          	j	11da4 <_vfprintf_r+0x99e>
   130cc:	f026                	sd	s1,32(sp)
   130ce:	14070863          	beqz	a4,1321e <_vfprintf_r+0x1e18>
   130d2:	001a881b          	addiw	a6,s5,1
   130d6:	88d6                	mv	a7,s5
   130d8:	e082                	sd	zero,64(sp)
   130da:	4a81                	li	s5,0
   130dc:	fc02                	sd	zero,56(sp)
   130de:	4b01                	li	s6,0
   130e0:	ccafe06f          	j	115aa <_vfprintf_r+0x1a4>
   130e4:	0a714703          	lbu	a4,167(sp)
   130e8:	cc0703e3          	beqz	a4,12dae <_vfprintf_r+0x19a8>
   130ec:	2805                	addiw	a6,a6,1
   130ee:	b1c1                	j	12dae <_vfprintf_r+0x19a8>
   130f0:	65c2                	ld	a1,16(sp)
   130f2:	6522                	ld	a0,8(sp)
   130f4:	1190                	addi	a2,sp,224
   130f6:	e0c2                	sd	a6,64(sp)
   130f8:	fc72                	sd	t3,56(sp)
   130fa:	411020ef          	jal	15d0a <__sprint_r>
   130fe:	c119                	beqz	a0,13104 <_vfprintf_r+0x1cfe>
   13100:	f33fe06f          	j	12032 <_vfprintf_r+0xc2c>
   13104:	5aca                	lw	s5,176(sp)
   13106:	77c2                	ld	a5,48(sp)
   13108:	794e                	ld	s2,240(sp)
   1310a:	6806                	ld	a6,64(sp)
   1310c:	7e62                	ld	t3,56(sp)
   1310e:	8bd2                	mv	s7,s4
   13110:	41578abb          	subw	s5,a5,s5
   13114:	9e4ff06f          	j	122f8 <_vfprintf_r+0xef2>
   13118:	8f26                	mv	t5,s1
   1311a:	be7fe06f          	j	11d00 <_vfprintf_r+0x8fa>
   1311e:	8f26                	mv	t5,s1
   13120:	c42ff06f          	j	12562 <_vfprintf_r+0x115c>
   13124:	5741                	li	a4,-16
   13126:	40c00abb          	negw	s5,a2
   1312a:	00010497          	auipc	s1,0x10
   1312e:	8c648493          	addi	s1,s1,-1850 # 229f0 <zeroes.0>
   13132:	08e65063          	bge	a2,a4,131b2 <_vfprintf_r+0x1dac>
   13136:	8c3e                	mv	s8,a5
   13138:	4b41                	li	s6,16
   1313a:	87ca                	mv	a5,s2
   1313c:	4d9d                	li	s11,7
   1313e:	fc72                	sd	t3,56(sp)
   13140:	8942                	mv	s2,a6
   13142:	a021                	j	1314a <_vfprintf_r+0x1d44>
   13144:	3ac1                	addiw	s5,s5,-16
   13146:	075b5263          	bge	s6,s5,131aa <_vfprintf_r+0x1da4>
   1314a:	07c1                	addi	a5,a5,16
   1314c:	2685                	addiw	a3,a3,1
   1314e:	009bb023          	sd	s1,0(s7)
   13152:	016bb423          	sd	s6,8(s7)
   13156:	f9be                	sd	a5,240(sp)
   13158:	d5b6                	sw	a3,232(sp)
   1315a:	0bc1                	addi	s7,s7,16
   1315c:	feddd4e3          	bge	s11,a3,13144 <_vfprintf_r+0x1d3e>
   13160:	65c2                	ld	a1,16(sp)
   13162:	6522                	ld	a0,8(sp)
   13164:	1190                	addi	a2,sp,224
   13166:	3a5020ef          	jal	15d0a <__sprint_r>
   1316a:	c119                	beqz	a0,13170 <_vfprintf_r+0x1d6a>
   1316c:	ec7fe06f          	j	12032 <_vfprintf_r+0xc2c>
   13170:	77ce                	ld	a5,240(sp)
   13172:	56ae                	lw	a3,232(sp)
   13174:	8bd2                	mv	s7,s4
   13176:	b7f9                	j	13144 <_vfprintf_r+0x1d3e>
   13178:	8562                	mv	a0,s8
   1317a:	85da                	mv	a1,s6
   1317c:	4601                	li	a2,0
   1317e:	4681                	li	a3,0
   13180:	e0f2                	sd	t3,64(sp)
   13182:	fc3e                	sd	a5,56(sp)
   13184:	1ec0e0ef          	jal	21370 <__eqtf2>
   13188:	77e2                	ld	a5,56(sp)
   1318a:	6e06                	ld	t3,64(sp)
   1318c:	18050163          	beqz	a0,1330e <_vfprintf_r+0x1f08>
   13190:	7742                	ld	a4,48(sp)
   13192:	68ae                	ld	a7,200(sp)
   13194:	00e784b3          	add	s1,a5,a4
   13198:	ba98e6e3          	bltu	a7,s1,12d44 <_vfprintf_r+0x193e>
   1319c:	40f888b3          	sub	a7,a7,a5
   131a0:	0008871b          	sext.w	a4,a7
   131a4:	5b4a                	lw	s6,176(sp)
   131a6:	f83a                	sd	a4,48(sp)
   131a8:	b9a5                	j	12e20 <_vfprintf_r+0x1a1a>
   131aa:	7e62                	ld	t3,56(sp)
   131ac:	884a                	mv	a6,s2
   131ae:	893e                	mv	s2,a5
   131b0:	87e2                	mv	a5,s8
   131b2:	9956                	add	s2,s2,s5
   131b4:	2685                	addiw	a3,a3,1
   131b6:	f9ca                	sd	s2,240(sp)
   131b8:	d5b6                	sw	a3,232(sp)
   131ba:	009bb023          	sd	s1,0(s7)
   131be:	015bb423          	sd	s5,8(s7)
   131c2:	471d                	li	a4,7
   131c4:	e6d75de3          	bge	a4,a3,1303e <_vfprintf_r+0x1c38>
   131c8:	65c2                	ld	a1,16(sp)
   131ca:	6522                	ld	a0,8(sp)
   131cc:	1190                	addi	a2,sp,224
   131ce:	ecc2                	sd	a6,88(sp)
   131d0:	e0f2                	sd	t3,64(sp)
   131d2:	fc3e                	sd	a5,56(sp)
   131d4:	337020ef          	jal	15d0a <__sprint_r>
   131d8:	c119                	beqz	a0,131de <_vfprintf_r+0x1dd8>
   131da:	e59fe06f          	j	12032 <_vfprintf_r+0xc2c>
   131de:	794e                	ld	s2,240(sp)
   131e0:	56ae                	lw	a3,232(sp)
   131e2:	6866                	ld	a6,88(sp)
   131e4:	6e06                	ld	t3,64(sp)
   131e6:	77e2                	ld	a5,56(sp)
   131e8:	8bd2                	mv	s7,s4
   131ea:	f70fe06f          	j	1195a <_vfprintf_r+0x554>
   131ee:	0a714283          	lbu	t0,167(sp)
   131f2:	4a81                	li	s5,0
   131f4:	00028463          	beqz	t0,131fc <_vfprintf_r+0x1df6>
   131f8:	a77fe06f          	j	11c6e <_vfprintf_r+0x868>
   131fc:	9effe06f          	j	11bea <_vfprintf_r+0x7e4>
   13200:	76e2                	ld	a3,56(sp)
   13202:	8a85                	andi	a3,a3,1
   13204:	cc0686e3          	beqz	a3,12ed0 <_vfprintf_r+0x1aca>
   13208:	b1c9                	j	12eca <_vfprintf_r+0x1ac4>
   1320a:	57fd                	li	a5,-1
   1320c:	17fe                	slli	a5,a5,0x3f
   1320e:	8dbd                	xor	a1,a1,a5
   13210:	02d00793          	li	a5,45
   13214:	ecbe                	sd	a5,88(sp)
   13216:	f402                	sd	zero,40(sp)
   13218:	19bc                	addi	a5,sp,248
   1321a:	d2efe06f          	j	11748 <_vfprintf_r+0x342>
   1321e:	88d6                	mv	a7,s5
   13220:	8856                	mv	a6,s5
   13222:	e082                	sd	zero,64(sp)
   13224:	4a81                	li	s5,0
   13226:	fc02                	sd	zero,56(sp)
   13228:	4b01                	li	s6,0
   1322a:	b80fe06f          	j	115aa <_vfprintf_r+0x1a4>
   1322e:	c31c                	sw	a5,0(a4)
   13230:	a90fe06f          	j	114c0 <_vfprintf_r+0xba>
   13234:	0000f797          	auipc	a5,0xf
   13238:	3ac78793          	addi	a5,a5,940 # 225e0 <__clzdi2+0x44>
   1323c:	4811                	li	a6,4
   1323e:	b6cfe06f          	j	115aa <_vfprintf_r+0x1a4>
   13242:	40f4873b          	subw	a4,s1,a5
   13246:	5b4a                	lw	s6,176(sp)
   13248:	f83a                	sd	a4,48(sp)
   1324a:	b62d                	j	12d74 <_vfprintf_r+0x196e>
   1324c:	06700d93          	li	s11,103
   13250:	7646                	ld	a2,112(sp)
   13252:	00064703          	lbu	a4,0(a2)
   13256:	f0170693          	addi	a3,a4,-255
   1325a:	1c068d63          	beqz	a3,13434 <_vfprintf_r+0x202e>
   1325e:	1d675b63          	bge	a4,s6,13434 <_vfprintf_r+0x202e>
   13262:	46aa                	lw	a3,136(sp)
   13264:	4801                	li	a6,0
   13266:	4501                	li	a0,0
   13268:	a809                	j	1327a <_vfprintf_r+0x1e74>
   1326a:	2505                	addiw	a0,a0,1
   1326c:	0605                	addi	a2,a2,1
   1326e:	f0170593          	addi	a1,a4,-255
   13272:	2701                	sext.w	a4,a4
   13274:	c9a9                	beqz	a1,132c6 <_vfprintf_r+0x1ec0>
   13276:	05675863          	bge	a4,s6,132c6 <_vfprintf_r+0x1ec0>
   1327a:	40eb0b3b          	subw	s6,s6,a4
   1327e:	00164703          	lbu	a4,1(a2)
   13282:	f765                	bnez	a4,1326a <_vfprintf_r+0x1e64>
   13284:	00064703          	lbu	a4,0(a2)
   13288:	2805                	addiw	a6,a6,1
   1328a:	b7d5                	j	1326e <_vfprintf_r+0x1e68>
   1328c:	0000f797          	auipc	a5,0xf
   13290:	36478793          	addi	a5,a5,868 # 225f0 <__clzdi2+0x54>
   13294:	4811                	li	a6,4
   13296:	b14fe06f          	j	115aa <_vfprintf_r+0x1a4>
   1329a:	64c2                	ld	s1,16(sp)
   1329c:	da3fe06f          	j	1203e <_vfprintf_r+0xc38>
   132a0:	4601                	li	a2,0
   132a2:	4681                	li	a3,0
   132a4:	8562                	mv	a0,s8
   132a6:	85da                	mv	a1,s6
   132a8:	e0f2                	sd	t3,64(sp)
   132aa:	fc3e                	sd	a5,56(sp)
   132ac:	f83a                	sd	a4,48(sp)
   132ae:	0c20e0ef          	jal	21370 <__eqtf2>
   132b2:	7742                	ld	a4,48(sp)
   132b4:	77e2                	ld	a5,56(sp)
   132b6:	6e06                	ld	t3,64(sp)
   132b8:	12051963          	bnez	a0,133ea <_vfprintf_r+0x1fe4>
   132bc:	5b4a                	lw	s6,176(sp)
   132be:	975a                	add	a4,a4,s6
   132c0:	9f1d                	subw	a4,a4,a5
   132c2:	f83a                	sd	a4,48(sp)
   132c4:	b465                	j	12d6c <_vfprintf_r+0x1966>
   132c6:	00a8073b          	addw	a4,a6,a0
   132ca:	02d7073b          	mulw	a4,a4,a3
   132ce:	f8b2                	sd	a2,112(sp)
   132d0:	fc2a                	sd	a0,56(sp)
   132d2:	e0c2                	sd	a6,64(sp)
   132d4:	00e888bb          	addw	a7,a7,a4
   132d8:	8746                	mv	a4,a7
   132da:	0008d363          	bgez	a7,132e0 <_vfprintf_r+0x1eda>
   132de:	4701                	li	a4,0
   132e0:	66e6                	ld	a3,88(sp)
   132e2:	0007081b          	sext.w	a6,a4
   132e6:	c2f1                	beqz	a3,133aa <_vfprintf_r+0x1fa4>
   132e8:	02d00693          	li	a3,45
   132ec:	7e22                	ld	t3,40(sp)
   132ee:	0ad103a3          	sb	a3,167(sp)
   132f2:	0017081b          	addiw	a6,a4,1
   132f6:	f402                	sd	zero,40(sp)
   132f8:	4a81                	li	s5,0
   132fa:	ab0fe06f          	j	115aa <_vfprintf_r+0x1a4>
   132fe:	6726                	ld	a4,72(sp)
   13300:	016a88bb          	addw	a7,s5,s6
   13304:	06600d93          	li	s11,102
   13308:	00e888bb          	addw	a7,a7,a4
   1330c:	b441                	j	12d8c <_vfprintf_r+0x1986>
   1330e:	5b4a                	lw	s6,176(sp)
   13310:	78c2                	ld	a7,48(sp)
   13312:	b639                	j	12e20 <_vfprintf_r+0x1a1a>
   13314:	8c26                	mv	s8,s1
   13316:	fffa849b          	addiw	s1,s5,-1
   1331a:	87e6                	mv	a5,s9
   1331c:	7be6                	ld	s7,120(sp)
   1331e:	6c8a                	ld	s9,128(sp)
   13320:	9ae2                	add	s5,s5,s8
   13322:	8762                	mv	a4,s8
   13324:	03000693          	li	a3,48
   13328:	0004d463          	bgez	s1,13330 <_vfprintf_r+0x1f2a>
   1332c:	d60fe06f          	j	1188c <_vfprintf_r+0x486>
   13330:	0705                	addi	a4,a4,1
   13332:	fed70fa3          	sb	a3,-1(a4)
   13336:	feea9de3          	bne	s5,a4,13330 <_vfprintf_r+0x1f2a>
   1333a:	001c0813          	addi	a6,s8,1
   1333e:	00980c33          	add	s8,a6,s1
   13342:	d4afe06f          	j	1188c <_vfprintf_r+0x486>
   13346:	02d00713          	li	a4,45
   1334a:	0ae10ca3          	sb	a4,185(sp)
   1334e:	56e1                	li	a3,-8
   13350:	4705                	li	a4,1
   13352:	4167073b          	subw	a4,a4,s6
   13356:	aedb49e3          	blt	s6,a3,12e48 <_vfprintf_r+0x1a42>
   1335a:	03000693          	li	a3,48
   1335e:	0ad10d23          	sb	a3,186(sp)
   13362:	fc72                	sd	t3,56(sp)
   13364:	f402                	sd	zero,40(sp)
   13366:	0bb10693          	addi	a3,sp,187
   1336a:	d56fe06f          	j	118c0 <_vfprintf_r+0x4ba>
   1336e:	02d00713          	li	a4,45
   13372:	0ae10ca3          	sb	a4,185(sp)
   13376:	5661                	li	a2,-8
   13378:	4705                	li	a4,1
   1337a:	9f15                	subw	a4,a4,a3
   1337c:	acc6c8e3          	blt	a3,a2,12e4c <_vfprintf_r+0x1a46>
   13380:	d3cfe06f          	j	118bc <_vfprintf_r+0x4b6>
   13384:	e711                	bnez	a4,13390 <_vfprintf_r+0x1f8a>
   13386:	4805                	li	a6,1
   13388:	88c2                	mv	a7,a6
   1338a:	06600d93          	li	s11,102
   1338e:	bc01                	j	12d9e <_vfprintf_r+0x1998>
   13390:	6726                	ld	a4,72(sp)
   13392:	0017089b          	addiw	a7,a4,1
   13396:	015888bb          	addw	a7,a7,s5
   1339a:	0008881b          	sext.w	a6,a7
   1339e:	fe08d6e3          	bgez	a7,1338a <_vfprintf_r+0x1f84>
   133a2:	4801                	li	a6,0
   133a4:	06600d93          	li	s11,102
   133a8:	badd                	j	12d9e <_vfprintf_r+0x1998>
   133aa:	0a714683          	lbu	a3,167(sp)
   133ae:	cab9                	beqz	a3,13404 <_vfprintf_r+0x1ffe>
   133b0:	7e22                	ld	t3,40(sp)
   133b2:	0017081b          	addiw	a6,a4,1
   133b6:	f402                	sd	zero,40(sp)
   133b8:	4a81                	li	s5,0
   133ba:	9f0fe06f          	j	115aa <_vfprintf_r+0x1a4>
   133be:	1afe                	slli	s5,s5,0x3f
   133c0:	02d00793          	li	a5,45
   133c4:	015b4b33          	xor	s6,s6,s5
   133c8:	ecbe                	sd	a5,88(sp)
   133ca:	4a99                	li	s5,6
   133cc:	ba39                	j	12cea <_vfprintf_r+0x18e4>
   133ce:	7702                	ld	a4,32(sp)
   133d0:	431c                	lw	a5,0(a4)
   133d2:	0721                	addi	a4,a4,8
   133d4:	00078a9b          	sext.w	s5,a5
   133d8:	0007d363          	bgez	a5,133de <_vfprintf_r+0x1fd8>
   133dc:	5afd                	li	s5,-1
   133de:	001cc303          	lbu	t1,1(s9)
   133e2:	f03a                	sd	a4,32(sp)
   133e4:	8cb2                	mv	s9,a2
   133e6:	94afe06f          	j	11530 <_vfprintf_r+0x12a>
   133ea:	4685                	li	a3,1
   133ec:	415686bb          	subw	a3,a3,s5
   133f0:	d936                	sw	a3,176(sp)
   133f2:	ba05                	j	12d22 <_vfprintf_r+0x191c>
   133f4:	4709                	li	a4,2
   133f6:	f0ba                	sd	a4,96(sp)
   133f8:	b4d1                	j	12ebc <_vfprintf_r+0x1ab6>
   133fa:	7686                	ld	a3,96(sp)
   133fc:	00a6c683          	lbu	a3,10(a3)
   13400:	c88fe06f          	j	11888 <_vfprintf_r+0x482>
   13404:	7e22                	ld	t3,40(sp)
   13406:	4a81                	li	s5,0
   13408:	f402                	sd	zero,40(sp)
   1340a:	9a0fe06f          	j	115aa <_vfprintf_r+0x1a4>
   1340e:	40f8873b          	subw	a4,a7,a5
   13412:	5b4a                	lw	s6,176(sp)
   13414:	f83a                	sd	a4,48(sp)
   13416:	ba99                	j	12d6c <_vfprintf_r+0x1966>
   13418:	7742                	ld	a4,48(sp)
   1341a:	973e                	add	a4,a4,a5
   1341c:	ba4d                	j	12dce <_vfprintf_r+0x19c8>
   1341e:	64c2                	ld	s1,16(sp)
   13420:	0104d783          	lhu	a5,16(s1)
   13424:	0407e793          	ori	a5,a5,64
   13428:	00f49823          	sh	a5,16(s1)
   1342c:	c13fe06f          	j	1203e <_vfprintf_r+0xc38>
   13430:	5b4a                	lw	s6,176(sp)
   13432:	baed                	j	12e2c <_vfprintf_r+0x1a26>
   13434:	4701                	li	a4,0
   13436:	e082                	sd	zero,64(sp)
   13438:	fc02                	sd	zero,56(sp)
   1343a:	bd69                	j	132d4 <_vfprintf_r+0x1ece>
   1343c:	e082                	sd	zero,64(sp)
   1343e:	fc02                	sd	zero,56(sp)
   13440:	96afe06f          	j	115aa <_vfprintf_r+0x1a4>
   13444:	4a81                	li	s5,0
   13446:	e082                	sd	zero,64(sp)
   13448:	fc02                	sd	zero,56(sp)
   1344a:	f402                	sd	zero,40(sp)
   1344c:	488d                	li	a7,3
   1344e:	4811                	li	a6,4
   13450:	95afe06f          	j	115aa <_vfprintf_r+0x1a4>

0000000000013454 <vfprintf>:
   13454:	872a                	mv	a4,a0
   13456:	2181b503          	ld	a0,536(gp) # 25490 <_impure_ptr>
   1345a:	86b2                	mv	a3,a2
   1345c:	862e                	mv	a2,a1
   1345e:	85ba                	mv	a1,a4
   13460:	fa7fd06f          	j	11406 <_vfprintf_r>

0000000000013464 <__sbprintf>:
   13464:	0105d783          	lhu	a5,16(a1)
   13468:	0ac5ae83          	lw	t4,172(a1)
   1346c:	0125de03          	lhu	t3,18(a1)
   13470:	0305b303          	ld	t1,48(a1)
   13474:	0405b883          	ld	a7,64(a1)
   13478:	b2010113          	addi	sp,sp,-1248
   1347c:	9bf5                	andi	a5,a5,-3
   1347e:	0c010813          	addi	a6,sp,192
   13482:	40000713          	li	a4,1024
   13486:	4c813823          	sd	s0,1232(sp)
   1348a:	842e                	mv	s0,a1
   1348c:	080c                	addi	a1,sp,16
   1348e:	4c913423          	sd	s1,1224(sp)
   13492:	02f11023          	sh	a5,32(sp)
   13496:	4c113c23          	sd	ra,1240(sp)
   1349a:	dc02                	sw	zero,56(sp)
   1349c:	df76                	sw	t4,188(sp)
   1349e:	03c11123          	sh	t3,34(sp)
   134a2:	e09a                	sd	t1,64(sp)
   134a4:	e8c6                	sd	a7,80(sp)
   134a6:	e842                	sd	a6,16(sp)
   134a8:	f442                	sd	a6,40(sp)
   134aa:	ce3a                	sw	a4,28(sp)
   134ac:	d83a                	sw	a4,48(sp)
   134ae:	84aa                	mv	s1,a0
   134b0:	f57fd0ef          	jal	11406 <_vfprintf_r>
   134b4:	87aa                	mv	a5,a0
   134b6:	02055763          	bgez	a0,134e4 <__sbprintf+0x80>
   134ba:	02015703          	lhu	a4,32(sp)
   134be:	04077713          	andi	a4,a4,64
   134c2:	c719                	beqz	a4,134d0 <__sbprintf+0x6c>
   134c4:	01045703          	lhu	a4,16(s0)
   134c8:	04076713          	ori	a4,a4,64
   134cc:	00e41823          	sh	a4,16(s0)
   134d0:	4d813083          	ld	ra,1240(sp)
   134d4:	4d013403          	ld	s0,1232(sp)
   134d8:	4c813483          	ld	s1,1224(sp)
   134dc:	853e                	mv	a0,a5
   134de:	4e010113          	addi	sp,sp,1248
   134e2:	8082                	ret
   134e4:	e42a                	sd	a0,8(sp)
   134e6:	080c                	addi	a1,sp,16
   134e8:	8526                	mv	a0,s1
   134ea:	291020ef          	jal	15f7a <_fflush_r>
   134ee:	67a2                	ld	a5,8(sp)
   134f0:	d569                	beqz	a0,134ba <__sbprintf+0x56>
   134f2:	57fd                	li	a5,-1
   134f4:	b7d9                	j	134ba <__sbprintf+0x56>

00000000000134f6 <__svfscanf_r>:
   134f6:	a8010113          	addi	sp,sp,-1408
   134fa:	56813823          	sd	s0,1392(sp)
   134fe:	56113c23          	sd	ra,1400(sp)
   13502:	56913423          	sd	s1,1384(sp)
   13506:	57213023          	sd	s2,1376(sp)
   1350a:	55313c23          	sd	s3,1368(sp)
   1350e:	55413823          	sd	s4,1360(sp)
   13512:	55513423          	sd	s5,1352(sp)
   13516:	55613023          	sd	s6,1344(sp)
   1351a:	53713c23          	sd	s7,1336(sp)
   1351e:	53813823          	sd	s8,1328(sp)
   13522:	53913423          	sd	s9,1320(sp)
   13526:	53a13023          	sd	s10,1312(sp)
   1352a:	51b13c23          	sd	s11,1304(sp)
   1352e:	58010413          	addi	s0,sp,1408
   13532:	80010113          	addi	sp,sp,-2048
   13536:	80010113          	addi	sp,sp,-2048
   1353a:	01059783          	lh	a5,16(a1)
   1353e:	0ac5a703          	lw	a4,172(a1)
   13542:	03279813          	slli	a6,a5,0x32
   13546:	28084263          	bltz	a6,137ca <__svfscanf_r+0x2d4>
   1354a:	7879                	lui	a6,0xffffe
   1354c:	6889                	lui	a7,0x2
   1354e:	187d                	addi	a6,a6,-1 # ffffffffffffdfff <__BSS_END__+0xfffffffffffd8587>
   13550:	0117e7b3          	or	a5,a5,a7
   13554:	01077733          	and	a4,a4,a6
   13558:	00f59823          	sh	a5,16(a1)
   1355c:	0ae5a623          	sw	a4,172(a1)
   13560:	00064783          	lbu	a5,0(a2)
   13564:	80040a13          	addi	s4,s0,-2048
   13568:	f90a0a13          	addi	s4,s4,-112
   1356c:	800a0a13          	addi	s4,s4,-2048
   13570:	0007881b          	sext.w	a6,a5
   13574:	b70a2e23          	sw	a6,-1156(s4)
   13578:	00081463          	bnez	a6,13580 <__svfscanf_r+0x8a>
   1357c:	3700206f          	j	158ec <__svfscanf_r+0x23f6>
   13580:	777d                	lui	a4,0xfffff
   13582:	af870713          	addi	a4,a4,-1288 # ffffffffffffeaf8 <__BSS_END__+0xfffffffffffd9080>
   13586:	9722                	add	a4,a4,s0
   13588:	e308                	sd	a0,0(a4)
   1358a:	777d                	lui	a4,0xfffff
   1358c:	ad070713          	addi	a4,a4,-1328 # ffffffffffffead0 <__BSS_END__+0xfffffffffffd9058>
   13590:	9722                	add	a4,a4,s0
   13592:	00073023          	sd	zero,0(a4)
   13596:	777d                	lui	a4,0xfffff
   13598:	ae870713          	addi	a4,a4,-1304 # ffffffffffffeae8 <__BSS_END__+0xfffffffffffd9070>
   1359c:	9722                	add	a4,a4,s0
   1359e:	00073023          	sd	zero,0(a4)
   135a2:	777d                	lui	a4,0xfffff
   135a4:	ad870713          	addi	a4,a4,-1320 # ffffffffffffead8 <__BSS_END__+0xfffffffffffd9060>
   135a8:	9722                	add	a4,a4,s0
   135aa:	00073023          	sd	zero,0(a4)
   135ae:	777d                	lui	a4,0xfffff
   135b0:	af070713          	addi	a4,a4,-1296 # ffffffffffffeaf0 <__BSS_END__+0xfffffffffffd9078>
   135b4:	9722                	add	a4,a4,s0
   135b6:	00073023          	sd	zero,0(a4)
   135ba:	777d                	lui	a4,0xfffff
   135bc:	ae070713          	addi	a4,a4,-1312 # ffffffffffffeae0 <__BSS_END__+0xfffffffffffd9068>
   135c0:	9722                	add	a4,a4,s0
   135c2:	00160493          	addi	s1,a2,1
   135c6:	4a81                	li	s5,0
   135c8:	00010b17          	auipc	s6,0x10
   135cc:	b51b0b13          	addi	s6,s6,-1199 # 23119 <_ctype_+0x1>
   135d0:	4901                	li	s2,0
   135d2:	e314                	sd	a3,0(a4)
   135d4:	8d2e                	mv	s10,a1
   135d6:	97da                	add	a5,a5,s6
   135d8:	0007c683          	lbu	a3,0(a5)
   135dc:	0086fc93          	andi	s9,a3,8
   135e0:	0c0c9d63          	bnez	s9,136ba <__svfscanf_r+0x1c4>
   135e4:	02500793          	li	a5,37
   135e8:	02f81a63          	bne	a6,a5,1361c <__svfscanf_r+0x126>
   135ec:	0004c603          	lbu	a2,0(s1)
   135f0:	4c01                	li	s8,0
   135f2:	4981                	li	s3,0
   135f4:	fdb6079b          	addiw	a5,a2,-37
   135f8:	0ff7f793          	zext.b	a5,a5
   135fc:	05500713          	li	a4,85
   13600:	00148813          	addi	a6,s1,1
   13604:	02f76863          	bltu	a4,a5,13634 <__svfscanf_r+0x13e>
   13608:	0000f717          	auipc	a4,0xf
   1360c:	47870713          	addi	a4,a4,1144 # 22a80 <blanks.1+0x80>
   13610:	078a                	slli	a5,a5,0x2
   13612:	97ba                	add	a5,a5,a4
   13614:	439c                	lw	a5,0(a5)
   13616:	97ba                	add	a5,a5,a4
   13618:	8782                	jr	a5
   1361a:	84c2                	mv	s1,a6
   1361c:	008d2783          	lw	a5,8(s10)
   13620:	10f05763          	blez	a5,1372e <__svfscanf_r+0x238>
   13624:	000d3783          	ld	a5,0(s10)
   13628:	fff4c703          	lbu	a4,-1(s1)
   1362c:	0007c683          	lbu	a3,0(a5)
   13630:	0ce68a63          	beq	a3,a4,13704 <__svfscanf_r+0x20e>
   13634:	77fd                	lui	a5,0xfffff
   13636:	ae878793          	addi	a5,a5,-1304 # ffffffffffffeae8 <__BSS_END__+0xfffffffffffd9070>
   1363a:	97a2                	add	a5,a5,s0
   1363c:	639c                	ld	a5,0(a5)
   1363e:	c78d                	beqz	a5,13668 <__svfscanf_r+0x172>
   13640:	777d                	lui	a4,0xfffff
   13642:	af070713          	addi	a4,a4,-1296 # ffffffffffffeaf0 <__BSS_END__+0xfffffffffffd9078>
   13646:	9722                	add	a4,a4,s0
   13648:	6318                	ld	a4,0(a4)
   1364a:	57fd                	li	a5,-1
   1364c:	10f70e63          	beq	a4,a5,13768 <__svfscanf_r+0x272>
   13650:	77fd                	lui	a5,0xfffff
   13652:	ae878793          	addi	a5,a5,-1304 # ffffffffffffeae8 <__BSS_END__+0xfffffffffffd9070>
   13656:	97a2                	add	a5,a5,s0
   13658:	639c                	ld	a5,0(a5)
   1365a:	0007b983          	ld	s3,0(a5)
   1365e:	00098563          	beqz	s3,13668 <__svfscanf_r+0x172>
   13662:	854e                	mv	a0,s3
   13664:	0be050ef          	jal	18722 <free>
   13668:	77fd                	lui	a5,0xfffff
   1366a:	af078793          	addi	a5,a5,-1296 # ffffffffffffeaf0 <__BSS_END__+0xfffffffffffd9078>
   1366e:	72fd                	lui	t0,0xfffff
   13670:	97a2                	add	a5,a5,s0
   13672:	a8028293          	addi	t0,t0,-1408 # ffffffffffffea80 <__BSS_END__+0xfffffffffffd9008>
   13676:	6388                	ld	a0,0(a5)
   13678:	00540133          	add	sp,s0,t0
   1367c:	6285                	lui	t0,0x1
   1367e:	9116                	add	sp,sp,t0
   13680:	57813083          	ld	ra,1400(sp)
   13684:	57013403          	ld	s0,1392(sp)
   13688:	56813483          	ld	s1,1384(sp)
   1368c:	56013903          	ld	s2,1376(sp)
   13690:	55813983          	ld	s3,1368(sp)
   13694:	55013a03          	ld	s4,1360(sp)
   13698:	54813a83          	ld	s5,1352(sp)
   1369c:	54013b03          	ld	s6,1344(sp)
   136a0:	53813b83          	ld	s7,1336(sp)
   136a4:	53013c03          	ld	s8,1328(sp)
   136a8:	52813c83          	ld	s9,1320(sp)
   136ac:	52013d03          	ld	s10,1312(sp)
   136b0:	51813d83          	ld	s11,1304(sp)
   136b4:	58010113          	addi	sp,sp,1408
   136b8:	8082                	ret
   136ba:	777d                	lui	a4,0xfffff
   136bc:	008d2783          	lw	a5,8(s10)
   136c0:	af870713          	addi	a4,a4,-1288 # ffffffffffffeaf8 <__BSS_END__+0xfffffffffffd9080>
   136c4:	9722                	add	a4,a4,s0
   136c6:	00073983          	ld	s3,0(a4)
   136ca:	02f05663          	blez	a5,136f6 <__svfscanf_r+0x200>
   136ce:	000d3703          	ld	a4,0(s10)
   136d2:	00074783          	lbu	a5,0(a4)
   136d6:	97da                	add	a5,a5,s6
   136d8:	0007c783          	lbu	a5,0(a5)
   136dc:	8ba1                	andi	a5,a5,8
   136de:	c38d                	beqz	a5,13700 <__svfscanf_r+0x20a>
   136e0:	008d2783          	lw	a5,8(s10)
   136e4:	0705                	addi	a4,a4,1
   136e6:	00ed3023          	sd	a4,0(s10)
   136ea:	37fd                	addiw	a5,a5,-1
   136ec:	00fd2423          	sw	a5,8(s10)
   136f0:	2905                	addiw	s2,s2,1
   136f2:	fcf04ee3          	bgtz	a5,136ce <__svfscanf_r+0x1d8>
   136f6:	85ea                	mv	a1,s10
   136f8:	854e                	mv	a0,s3
   136fa:	637020ef          	jal	16530 <__srefill_r>
   136fe:	d961                	beqz	a0,136ce <__svfscanf_r+0x1d8>
   13700:	8826                	mv	a6,s1
   13702:	a819                	j	13718 <__svfscanf_r+0x222>
   13704:	0785                	addi	a5,a5,1
   13706:	00fd3023          	sd	a5,0(s10)
   1370a:	008d2783          	lw	a5,8(s10)
   1370e:	2905                	addiw	s2,s2,1
   13710:	8826                	mv	a6,s1
   13712:	37fd                	addiw	a5,a5,-1
   13714:	00fd2423          	sw	a5,8(s10)
   13718:	00084783          	lbu	a5,0(a6)
   1371c:	00180493          	addi	s1,a6,1
   13720:	0007881b          	sext.w	a6,a5
   13724:	b70a2e23          	sw	a6,-1156(s4)
   13728:	ea0817e3          	bnez	a6,135d6 <__svfscanf_r+0xe0>
   1372c:	b721                	j	13634 <__svfscanf_r+0x13e>
   1372e:	77fd                	lui	a5,0xfffff
   13730:	af878793          	addi	a5,a5,-1288 # ffffffffffffeaf8 <__BSS_END__+0xfffffffffffd9080>
   13734:	97a2                	add	a5,a5,s0
   13736:	6388                	ld	a0,0(a5)
   13738:	85ea                	mv	a1,s10
   1373a:	5f7020ef          	jal	16530 <__srefill_r>
   1373e:	ee0503e3          	beqz	a0,13624 <__svfscanf_r+0x12e>
   13742:	8bea                	mv	s7,s10
   13744:	77fd                	lui	a5,0xfffff
   13746:	af078793          	addi	a5,a5,-1296 # ffffffffffffeaf0 <__BSS_END__+0xfffffffffffd9078>
   1374a:	97a2                	add	a5,a5,s0
   1374c:	639c                	ld	a5,0(a5)
   1374e:	c799                	beqz	a5,1375c <__svfscanf_r+0x266>
   13750:	010bd783          	lhu	a5,16(s7)
   13754:	0407f793          	andi	a5,a5,64
   13758:	ec078ee3          	beqz	a5,13634 <__svfscanf_r+0x13e>
   1375c:	77fd                	lui	a5,0xfffff
   1375e:	ae878793          	addi	a5,a5,-1304 # ffffffffffffeae8 <__BSS_END__+0xfffffffffffd9070>
   13762:	97a2                	add	a5,a5,s0
   13764:	639c                	ld	a5,0(a5)
   13766:	c7b5                	beqz	a5,137d2 <__svfscanf_r+0x2dc>
   13768:	77fd                	lui	a5,0xfffff
   1376a:	ae878793          	addi	a5,a5,-1304 # ffffffffffffeae8 <__BSS_END__+0xfffffffffffd9070>
   1376e:	97a2                	add	a5,a5,s0
   13770:	6398                	ld	a4,0(a5)
   13772:	00a75783          	lhu	a5,10(a4)
   13776:	00073983          	ld	s3,0(a4)
   1377a:	c795                	beqz	a5,137a6 <__svfscanf_r+0x2b0>
   1377c:	fff7891b          	addiw	s2,a5,-1
   13780:	02091793          	slli	a5,s2,0x20
   13784:	01d7d913          	srli	s2,a5,0x1d
   13788:	00898793          	addi	a5,s3,8
   1378c:	993e                	add	s2,s2,a5
   1378e:	84ce                	mv	s1,s3
   13790:	609c                	ld	a5,0(s1)
   13792:	04a1                	addi	s1,s1,8
   13794:	6388                	ld	a0,0(a5)
   13796:	78d040ef          	jal	18722 <free>
   1379a:	ff84b783          	ld	a5,-8(s1)
   1379e:	0007b023          	sd	zero,0(a5)
   137a2:	fe9917e3          	bne	s2,s1,13790 <__svfscanf_r+0x29a>
   137a6:	777d                	lui	a4,0xfffff
   137a8:	af070713          	addi	a4,a4,-1296 # ffffffffffffeaf0 <__BSS_END__+0xfffffffffffd9078>
   137ac:	57fd                	li	a5,-1
   137ae:	9722                	add	a4,a4,s0
   137b0:	e31c                	sd	a5,0(a4)
   137b2:	b575                	j	1365e <__svfscanf_r+0x168>
   137b4:	00fc7793          	andi	a5,s8,15
   137b8:	e6079ee3          	bnez	a5,13634 <__svfscanf_r+0x13e>
   137bc:	001c6c13          	ori	s8,s8,1
   137c0:	0014c603          	lbu	a2,1(s1)
   137c4:	2c01                	sext.w	s8,s8
   137c6:	84c2                	mv	s1,a6
   137c8:	b535                	j	135f4 <__svfscanf_r+0xfe>
   137ca:	03271793          	slli	a5,a4,0x32
   137ce:	d807d9e3          	bgez	a5,13560 <__svfscanf_r+0x6a>
   137d2:	777d                	lui	a4,0xfffff
   137d4:	af070713          	addi	a4,a4,-1296 # ffffffffffffeaf0 <__BSS_END__+0xfffffffffffd9078>
   137d8:	57fd                	li	a5,-1
   137da:	9722                	add	a4,a4,s0
   137dc:	e31c                	sd	a5,0(a4)
   137de:	b569                	j	13668 <__svfscanf_r+0x172>
   137e0:	08fc7793          	andi	a5,s8,143
   137e4:	e40798e3          	bnez	a5,13634 <__svfscanf_r+0x13e>
   137e8:	00299793          	slli	a5,s3,0x2
   137ec:	99be                	add	s3,s3,a5
   137ee:	0986                	slli	s3,s3,0x1
   137f0:	99b2                	add	s3,s3,a2
   137f2:	fd098993          	addi	s3,s3,-48
   137f6:	0014c603          	lbu	a2,1(s1)
   137fa:	84c2                	mv	s1,a6
   137fc:	bbe5                	j	135f4 <__svfscanf_r+0xfe>
   137fe:	008d2703          	lw	a4,8(s10)
   13802:	4491                	li	s1,4
   13804:	1ee05163          	blez	a4,139e6 <__svfscanf_r+0x4f0>
   13808:	000d3603          	ld	a2,0(s10)
   1380c:	00064703          	lbu	a4,0(a2)
   13810:	975a                	add	a4,a4,s6
   13812:	00074703          	lbu	a4,0(a4)
   13816:	8b21                	andi	a4,a4,8
   13818:	cf21                	beqz	a4,13870 <__svfscanf_r+0x37a>
   1381a:	77fd                	lui	a5,0xfffff
   1381c:	af878793          	addi	a5,a5,-1288 # ffffffffffffeaf8 <__BSS_END__+0xfffffffffffd9080>
   13820:	97a2                	add	a5,a5,s0
   13822:	0007bb83          	ld	s7,0(a5)
   13826:	8dc2                	mv	s11,a6
   13828:	a821                	j	13840 <__svfscanf_r+0x34a>
   1382a:	0605                	addi	a2,a2,1
   1382c:	00cd3023          	sd	a2,0(s10)
   13830:	00064783          	lbu	a5,0(a2)
   13834:	2905                	addiw	s2,s2,1
   13836:	97da                	add	a5,a5,s6
   13838:	0007c783          	lbu	a5,0(a5)
   1383c:	8ba1                	andi	a5,a5,8
   1383e:	cb85                	beqz	a5,1386e <__svfscanf_r+0x378>
   13840:	008d2783          	lw	a5,8(s10)
   13844:	37fd                	addiw	a5,a5,-1
   13846:	00fd2423          	sw	a5,8(s10)
   1384a:	fef040e3          	bgtz	a5,1382a <__svfscanf_r+0x334>
   1384e:	85ea                	mv	a1,s10
   13850:	855e                	mv	a0,s7
   13852:	4df020ef          	jal	16530 <__srefill_r>
   13856:	ee0516e3          	bnez	a0,13742 <__svfscanf_r+0x24c>
   1385a:	000d3603          	ld	a2,0(s10)
   1385e:	2905                	addiw	s2,s2,1
   13860:	00064783          	lbu	a5,0(a2)
   13864:	97da                	add	a5,a5,s6
   13866:	0007c783          	lbu	a5,0(a5)
   1386a:	8ba1                	andi	a5,a5,8
   1386c:	fbf1                	bnez	a5,13840 <__svfscanf_r+0x34a>
   1386e:	886e                	mv	a6,s11
   13870:	4709                	li	a4,2
   13872:	4ee48ee3          	beq	s1,a4,1456e <__svfscanf_r+0x1078>
   13876:	470d                	li	a4,3
   13878:	5ce48be3          	beq	s1,a4,1464e <__svfscanf_r+0x1158>
   1387c:	77fd                	lui	a5,0xfffff
   1387e:	ac878793          	addi	a5,a5,-1336 # ffffffffffffeac8 <__BSS_END__+0xfffffffffffd9050>
   13882:	97a2                	add	a5,a5,s0
   13884:	0107b023          	sd	a6,0(a5)
   13888:	77fd                	lui	a5,0xfffff
   1388a:	af878793          	addi	a5,a5,-1288 # ffffffffffffeaf8 <__BSS_END__+0xfffffffffffd9080>
   1388e:	97a2                	add	a5,a5,s0
   13890:	6388                	ld	a0,0(a5)
   13892:	354030ef          	jal	16be6 <_localeconv_r>
   13896:	611c                	ld	a5,0(a0)
   13898:	76fd                	lui	a3,0xfffff
   1389a:	aa068693          	addi	a3,a3,-1376 # ffffffffffffeaa0 <__BSS_END__+0xfffffffffffd9028>
   1389e:	96a2                	add	a3,a3,s0
   138a0:	e29c                	sd	a5,0(a3)
   138a2:	77fd                	lui	a5,0xfffff
   138a4:	6705                	lui	a4,0x1
   138a6:	ac878793          	addi	a5,a5,-1336 # ffffffffffffeac8 <__BSS_END__+0xfffffffffffd9050>
   138aa:	97a2                	add	a5,a5,s0
   138ac:	fff98613          	addi	a2,s3,-1
   138b0:	36c70713          	addi	a4,a4,876 # 136c <exit-0xedb4>
   138b4:	0007b803          	ld	a6,0(a5)
   138b8:	4581                	li	a1,0
   138ba:	00c77a63          	bgeu	a4,a2,138ce <__svfscanf_r+0x3d8>
   138be:	75fd                	lui	a1,0xfffff
   138c0:	c935859b          	addiw	a1,a1,-877 # ffffffffffffec93 <__BSS_END__+0xfffffffffffd921b>
   138c4:	00b985bb          	addw	a1,s3,a1
   138c8:	6985                	lui	s3,0x1
   138ca:	36d98993          	addi	s3,s3,877 # 136d <exit-0xedb3>
   138ce:	77fd                	lui	a5,0xfffff
   138d0:	c2078793          	addi	a5,a5,-992 # ffffffffffffec20 <__BSS_END__+0xfffffffffffd91a8>
   138d4:	76fd                	lui	a3,0xfffff
   138d6:	00f40db3          	add	s11,s0,a5
   138da:	ac068693          	addi	a3,a3,-1344 # ffffffffffffeac0 <__BSS_END__+0xfffffffffffd9048>
   138de:	77fd                	lui	a5,0xfffff
   138e0:	6705                	lui	a4,0x1
   138e2:	07f78793          	addi	a5,a5,127 # fffffffffffff07f <__BSS_END__+0xfffffffffffd9607>
   138e6:	96a2                	add	a3,a3,s0
   138e8:	e29c                	sd	a5,0(a3)
   138ea:	80070793          	addi	a5,a4,-2048 # 800 <exit-0xf920>
   138ee:	777d                	lui	a4,0xfffff
   138f0:	a9870713          	addi	a4,a4,-1384 # ffffffffffffea98 <__BSS_END__+0xfffffffffffd9020>
   138f4:	9722                	add	a4,a4,s0
   138f6:	e31c                	sd	a5,0(a4)
   138f8:	77fd                	lui	a5,0xfffff
   138fa:	aa878793          	addi	a5,a5,-1368 # ffffffffffffeaa8 <__BSS_END__+0xfffffffffffd9030>
   138fe:	97a2                	add	a5,a5,s0
   13900:	0007b023          	sd	zero,0(a5)
   13904:	77fd                	lui	a5,0xfffff
   13906:	ab078793          	addi	a5,a5,-1360 # ffffffffffffeab0 <__BSS_END__+0xfffffffffffd9038>
   1390a:	97a2                	add	a5,a5,s0
   1390c:	0007b023          	sd	zero,0(a5)
   13910:	777d                	lui	a4,0xfffff
   13912:	77fd                	lui	a5,0xfffff
   13914:	ac878793          	addi	a5,a5,-1336 # ffffffffffffeac8 <__BSS_END__+0xfffffffffffd9050>
   13918:	a8870713          	addi	a4,a4,-1400 # ffffffffffffea88 <__BSS_END__+0xfffffffffffd9010>
   1391c:	97a2                	add	a5,a5,s0
   1391e:	9722                	add	a4,a4,s0
   13920:	01973023          	sd	s9,0(a4)
   13924:	0007b023          	sd	zero,0(a5)
   13928:	777d                	lui	a4,0xfffff
   1392a:	77fd                	lui	a5,0xfffff
   1392c:	a9078793          	addi	a5,a5,-1392 # ffffffffffffea90 <__BSS_END__+0xfffffffffffd9018>
   13930:	ab870713          	addi	a4,a4,-1352 # ffffffffffffeab8 <__BSS_END__+0xfffffffffffd9040>
   13934:	780c6493          	ori	s1,s8,1920
   13938:	97a2                	add	a5,a5,s0
   1393a:	9722                	add	a4,a4,s0
   1393c:	8ba6                	mv	s7,s1
   1393e:	01473023          	sd	s4,0(a4)
   13942:	04e00f13          	li	t5,78
   13946:	8a6a                	mv	s4,s10
   13948:	0000fe97          	auipc	t4,0xf
   1394c:	290e8e93          	addi	t4,t4,656 # 22bd8 <blanks.1+0x1d8>
   13950:	8d4a                	mv	s10,s2
   13952:	e38c                	sd	a1,0(a5)
   13954:	894e                	mv	s2,s3
   13956:	4c81                	li	s9,0
   13958:	8c42                	mv	s8,a6
   1395a:	4981                	li	s3,0
   1395c:	4481                	li	s1,0
   1395e:	000a3703          	ld	a4,0(s4)
   13962:	00074503          	lbu	a0,0(a4)
   13966:	fd55079b          	addiw	a5,a0,-43
   1396a:	0ff7f793          	zext.b	a5,a5
   1396e:	7cff6263          	bltu	t5,a5,14132 <__svfscanf_r+0xc3c>
   13972:	078a                	slli	a5,a5,0x2
   13974:	97f6                	add	a5,a5,t4
   13976:	439c                	lw	a5,0(a5)
   13978:	97f6                	add	a5,a5,t4
   1397a:	8782                	jr	a5
   1397c:	008d2703          	lw	a4,8(s10)
   13980:	00e04463          	bgtz	a4,13988 <__svfscanf_r+0x492>
   13984:	7f60106f          	j	1517a <__svfscanf_r+0x1c84>
   13988:	200c6c13          	ori	s8,s8,512
   1398c:	777d                	lui	a4,0xfffff
   1398e:	ad070713          	addi	a4,a4,-1328 # ffffffffffffead0 <__BSS_END__+0xfffffffffffd9058>
   13992:	00007797          	auipc	a5,0x7
   13996:	59478793          	addi	a5,a5,1428 # 1af26 <_strtoul_r>
   1399a:	9722                	add	a4,a4,s0
   1399c:	e31c                	sd	a5,0(a4)
   1399e:	47c1                	li	a5,16
   139a0:	777d                	lui	a4,0xfffff
   139a2:	ad870713          	addi	a4,a4,-1320 # ffffffffffffead8 <__BSS_END__+0xfffffffffffd9060>
   139a6:	9722                	add	a4,a4,s0
   139a8:	e31c                	sd	a5,0(a4)
   139aa:	448d                	li	s1,3
   139ac:	bdb1                	j	13808 <__svfscanf_r+0x312>
   139ae:	008d2703          	lw	a4,8(s10)
   139b2:	00007797          	auipc	a5,0x7
   139b6:	38a78793          	addi	a5,a5,906 # 1ad3c <_strtol_r>
   139ba:	00e04463          	bgtz	a4,139c2 <__svfscanf_r+0x4cc>
   139be:	6550106f          	j	15812 <__svfscanf_r+0x231c>
   139c2:	777d                	lui	a4,0xfffff
   139c4:	ad070713          	addi	a4,a4,-1328 # ffffffffffffead0 <__BSS_END__+0xfffffffffffd9058>
   139c8:	9722                	add	a4,a4,s0
   139ca:	e31c                	sd	a5,0(a4)
   139cc:	77fd                	lui	a5,0xfffff
   139ce:	ad878793          	addi	a5,a5,-1320 # ffffffffffffead8 <__BSS_END__+0xfffffffffffd9060>
   139d2:	97a2                	add	a5,a5,s0
   139d4:	0007b023          	sd	zero,0(a5)
   139d8:	448d                	li	s1,3
   139da:	b53d                	j	13808 <__svfscanf_r+0x312>
   139dc:	008d2703          	lw	a4,8(s10)
   139e0:	4489                	li	s1,2
   139e2:	e2e043e3          	bgtz	a4,13808 <__svfscanf_r+0x312>
   139e6:	77fd                	lui	a5,0xfffff
   139e8:	ac878793          	addi	a5,a5,-1336 # ffffffffffffeac8 <__BSS_END__+0xfffffffffffd9050>
   139ec:	97a2                	add	a5,a5,s0
   139ee:	0107b023          	sd	a6,0(a5)
   139f2:	77fd                	lui	a5,0xfffff
   139f4:	af878793          	addi	a5,a5,-1288 # ffffffffffffeaf8 <__BSS_END__+0xfffffffffffd9080>
   139f8:	97a2                	add	a5,a5,s0
   139fa:	6388                	ld	a0,0(a5)
   139fc:	85ea                	mv	a1,s10
   139fe:	333020ef          	jal	16530 <__srefill_r>
   13a02:	77fd                	lui	a5,0xfffff
   13a04:	ac878793          	addi	a5,a5,-1336 # ffffffffffffeac8 <__BSS_END__+0xfffffffffffd9050>
   13a08:	97a2                	add	a5,a5,s0
   13a0a:	0007b803          	ld	a6,0(a5)
   13a0e:	de050de3          	beqz	a0,13808 <__svfscanf_r+0x312>
   13a12:	bb05                	j	13742 <__svfscanf_r+0x24c>
   13a14:	008d2703          	lw	a4,8(s10)
   13a18:	00007797          	auipc	a5,0x7
   13a1c:	50e78793          	addi	a5,a5,1294 # 1af26 <_strtoul_r>
   13a20:	42e05963          	blez	a4,13e52 <__svfscanf_r+0x95c>
   13a24:	777d                	lui	a4,0xfffff
   13a26:	ad070713          	addi	a4,a4,-1328 # ffffffffffffead0 <__BSS_END__+0xfffffffffffd9058>
   13a2a:	9722                	add	a4,a4,s0
   13a2c:	e31c                	sd	a5,0(a4)
   13a2e:	47a9                	li	a5,10
   13a30:	bf85                	j	139a0 <__svfscanf_r+0x4aa>
   13a32:	008d2703          	lw	a4,8(s10)
   13a36:	041c6c13          	ori	s8,s8,65
   13a3a:	00e04463          	bgtz	a4,13a42 <__svfscanf_r+0x54c>
   13a3e:	2580106f          	j	14c96 <__svfscanf_r+0x17a0>
   13a42:	84ce                	mv	s1,s3
   13a44:	00099463          	bnez	s3,13a4c <__svfscanf_r+0x556>
   13a48:	2860106f          	j	14cce <__svfscanf_r+0x17d8>
   13a4c:	010c7b93          	andi	s7,s8,16
   13a50:	000b8463          	beqz	s7,13a58 <__svfscanf_r+0x562>
   13a54:	26f0106f          	j	154c2 <__svfscanf_r+0x1fcc>
   13a58:	77fd                	lui	a5,0xfffff
   13a5a:	ae078793          	addi	a5,a5,-1312 # ffffffffffffeae0 <__BSS_END__+0xfffffffffffd9068>
   13a5e:	97a2                	add	a5,a5,s0
   13a60:	639c                	ld	a5,0(a5)
   13a62:	76fd                	lui	a3,0xfffff
   13a64:	aa868693          	addi	a3,a3,-1368 # ffffffffffffeaa8 <__BSS_END__+0xfffffffffffd9030>
   13a68:	00878713          	addi	a4,a5,8
   13a6c:	96a2                	add	a3,a3,s0
   13a6e:	639c                	ld	a5,0(a5)
   13a70:	e298                	sd	a4,0(a3)
   13a72:	777d                	lui	a4,0xfffff
   13a74:	ab870713          	addi	a4,a4,-1352 # ffffffffffffeab8 <__BSS_END__+0xfffffffffffd9040>
   13a78:	9722                	add	a4,a4,s0
   13a7a:	080c7c13          	andi	s8,s8,128
   13a7e:	e31c                	sd	a5,0(a4)
   13a80:	000c1463          	bnez	s8,13a88 <__svfscanf_r+0x592>
   13a84:	4e10106f          	j	15764 <__svfscanf_r+0x226e>
   13a88:	ba0786e3          	beqz	a5,13634 <__svfscanf_r+0x13e>
   13a8c:	77fd                	lui	a5,0xfffff
   13a8e:	ae078793          	addi	a5,a5,-1312 # ffffffffffffeae0 <__BSS_END__+0xfffffffffffd9068>
   13a92:	97a2                	add	a5,a5,s0
   13a94:	08000513          	li	a0,128
   13a98:	0107b023          	sd	a6,0(a5)
   13a9c:	47d040ef          	jal	18718 <malloc>
   13aa0:	77fd                	lui	a5,0xfffff
   13aa2:	ae078793          	addi	a5,a5,-1312 # ffffffffffffeae0 <__BSS_END__+0xfffffffffffd9068>
   13aa6:	97a2                	add	a5,a5,s0
   13aa8:	0007b803          	ld	a6,0(a5)
   13aac:	8caa                	mv	s9,a0
   13aae:	ca0507e3          	beqz	a0,1375c <__svfscanf_r+0x266>
   13ab2:	77fd                	lui	a5,0xfffff
   13ab4:	ae878793          	addi	a5,a5,-1304 # ffffffffffffeae8 <__BSS_END__+0xfffffffffffd9070>
   13ab8:	97a2                	add	a5,a5,s0
   13aba:	76fd                	lui	a3,0xfffff
   13abc:	6398                	ld	a4,0(a5)
   13abe:	ab868693          	addi	a3,a3,-1352 # ffffffffffffeab8 <__BSS_END__+0xfffffffffffd9040>
   13ac2:	96a2                	add	a3,a3,s0
   13ac4:	6294                	ld	a3,0(a3)
   13ac6:	00875783          	lhu	a5,8(a4)
   13aca:	00a75983          	lhu	s3,10(a4)
   13ace:	e288                	sd	a0,0(a3)
   13ad0:	0007869b          	sext.w	a3,a5
   13ad4:	00f9e463          	bltu	s3,a5,13adc <__svfscanf_r+0x5e6>
   13ad8:	4f40106f          	j	14fcc <__svfscanf_r+0x1ad6>
   13adc:	6308                	ld	a0,0(a4)
   13ade:	00399793          	slli	a5,s3,0x3
   13ae2:	953e                	add	a0,a0,a5
   13ae4:	77fd                	lui	a5,0xfffff
   13ae6:	ab878793          	addi	a5,a5,-1352 # ffffffffffffeab8 <__BSS_END__+0xfffffffffffd9040>
   13aea:	97a2                	add	a5,a5,s0
   13aec:	639c                	ld	a5,0(a5)
   13aee:	2985                	addiw	s3,s3,1
   13af0:	777d                	lui	a4,0xfffff
   13af2:	e11c                	sd	a5,0(a0)
   13af4:	77fd                	lui	a5,0xfffff
   13af6:	ae878793          	addi	a5,a5,-1304 # ffffffffffffeae8 <__BSS_END__+0xfffffffffffd9070>
   13afa:	97a2                	add	a5,a5,s0
   13afc:	639c                	ld	a5,0(a5)
   13afe:	ac070713          	addi	a4,a4,-1344 # ffffffffffffeac0 <__BSS_END__+0xfffffffffffd9048>
   13b02:	9722                	add	a4,a4,s0
   13b04:	01379523          	sh	s3,10(a5)
   13b08:	77fd                	lui	a5,0xfffff
   13b0a:	ac878793          	addi	a5,a5,-1336 # ffffffffffffeac8 <__BSS_END__+0xfffffffffffd9050>
   13b0e:	97a2                	add	a5,a5,s0
   13b10:	0197b023          	sd	s9,0(a5)
   13b14:	4785                	li	a5,1
   13b16:	e31c                	sd	a5,0(a4)
   13b18:	777d                	lui	a4,0xfffff
   13b1a:	ae070713          	addi	a4,a4,-1312 # ffffffffffffeae0 <__BSS_END__+0xfffffffffffd9068>
   13b1e:	02000793          	li	a5,32
   13b22:	9722                	add	a4,a4,s0
   13b24:	e31c                	sd	a5,0(a4)
   13b26:	77fd                	lui	a5,0xfffff
